(dp0
(I22
I26
I0
tp1
(lp2
F0.37609291076660156
acnumpy.core.multiarray
scalar
p3
(cnumpy
dtype
p4
(S'f8'
p5
I0
I1
tp6
Rp7
(I3
S'<'
p8
NNNI-1
I-1
I0
tp9
bS'\xfec@\xe1\xf9\xc1\xce?'
p10
tp11
Rp12
ag3
(g7
S'E\x06\x0e\xb9\xed\xaa\xc5?'
p13
tp14
Rp15
as(I16
I16
I2
tp16
(lp17
F0.38903188705444336
ag3
(g7
S'\xaak\x86\x9c\x17\x12\xe1?'
p18
tp19
Rp20
ag3
(g7
S'g\x04l\x14\x9dc\xdb?'
p21
tp22
Rp23
as(I12
I30
I0
tp24
(lp25
F0.7981748580932617
ag3
(g7
S'\xf3f\x80\xbd\xca\x02\xe6?'
p26
tp27
Rp28
ag3
(g7
S'}\x06\xc6\xfc\x96\x9c\xe2?'
p29
tp30
Rp31
as(I16
I22
I2
tp32
(lp33
F0.6598901748657227
ag3
(g7
S'\xe4\xd4$P\xe9\xc1\xe3?'
p34
tp35
Rp36
ag3
(g7
S'\x92\xba\x01O\xdaF\xe0?'
p37
tp38
Rp39
as(I20
I4
I2
tp40
(lp41
F0.08502316474914551
ag3
(g7
S'\xd5\x84\xa0\x07\xd5w\xca?'
p42
tp43
Rp44
ag3
(g7
S'{\xfa~\x8b\xad\x04\xc2?'
p45
tp46
Rp47
as(I22
I24
I4
tp48
(lp49
F0.7220559120178223
ag3
(g7
S'\x0f\xa4\n\x03\xa5U\xe0?'
p50
tp51
Rp52
ag3
(g7
S"\xe4\x982]]'\xda?"
p53
tp54
Rp55
as(I18
I12
I0
tp56
(lp57
F0.1801609992980957
ag3
(g7
S'\xd8o:m\x0b\x84\xcf?'
p58
tp59
Rp60
ag3
(g7
S'8\xd8\xecG\xd4\xea\xc5?'
p61
tp62
Rp63
as(I14
I12
I4
tp64
(lp65
F1.0919921398162842
ag3
(g7
S'\x8b\xba\x8a&\xa5\xa8\xea?'
p66
tp67
Rp68
ag3
(g7
S'\xc7e}\x0c\xab.\xe8?'
p69
tp70
Rp71
as(I12
I12
I1
tp72
(lp73
F0.4308280944824219
ag3
(g7
S'C\x15\x0c/\xdd!\xe3?'
p74
tp75
Rp76
ag3
(g7
S"j0!\xee&'\xdf?"
p77
tp78
Rp79
as(I14
I22
I0
tp80
(lp81
F0.3857440948486328
ag3
(g7
S'\xea\xf6\x045K+\xdf?'
p82
tp83
Rp84
ag3
(g7
S'\nd\xb1$\xfd\x1e\xd8?'
p85
tp86
Rp87
as(I22
I16
I1
tp88
(lp89
F0.27103495597839355
ag3
(g7
S'Ek\x87X\xc8\x8b\xd0?'
p90
tp91
Rp92
ag3
(g7
S'\xe9\xd4\x1ek\xb7\x80\xc7?'
p93
tp94
Rp95
as(I14
I24
I4
tp96
(lp97
F2.247429847717285
ag3
(g7
S'#\x84\x01\x14\xa4\x04\xee?'
p98
tp99
Rp100
ag3
(g7
S'\x9f\xa5\x8f\xea\xac\xd0\xec?'
p101
tp102
Rp103
as(I22
I4
I0
tp104
(lp105
F0.07085800170898438
ag3
(g7
S'9_L\xb1Bv\xb8?'
p106
tp107
Rp108
ag3
(g7
S'K \x91\n\x1b9\xad?'
p109
tp110
Rp111
as(I20
I26
I4
tp112
(lp113
F0.8216509819030762
ag3
(g7
S'\xd1p\x7f\xf5O%\xe4?'
p114
tp115
Rp116
ag3
(g7
S'\xfa\x01~F%\xc0\xe0?'
p117
tp118
Rp119
as(I16
I26
I2
tp120
(lp121
F0.6485610008239746
ag3
(g7
S'\x0b\xef}^\xb9\x87\xe5?'
p122
tp123
Rp124
ag3
(g7
S'u\xcd\x90\xf3B"\xe2?'
p125
tp126
Rp127
as(I22
I10
I0
tp128
(lp129
F0.15536999702453613
ag3
(g7
S'\x1b\xa57\xf7!\xf2\xc3?'
p130
tp131
Rp132
ag3
(g7
S'\x05\xff=jT\x7f\xb9?'
p133
tp134
Rp135
as(I18
I30
I4
tp136
(lp137
F1.146718978881836
ag3
(g7
S'\x1c\xe8G\xda\xcf\x07\xe9?'
p138
tp139
Rp140
ag3
(g7
S'M?C\xc2A%\xe6?'
p141
tp142
Rp143
as(I18
I24
I0
tp144
(lp145
F0.34307193756103516
ag3
(g7
S']-\xff\x8aO,\xd5?'
p146
tp147
Rp148
ag3
(g7
S'w\x93\x93o\x11\xe6\xce?'
p149
tp150
Rp151
as(I18
I18
I4
tp152
(lp153
F0.6849451065063477
ag3
(g7
S'I\xf5\x14\xefq\x94\xe5?'
p154
tp155
Rp156
ag3
(g7
S'/\xe9\xeb\xf6\x81B\xe2?'
p157
tp158
Rp159
as(I12
I24
I1
tp160
(lp161
F1.020460844039917
ag3
(g7
S'\xe2(.\xfd\x12\xee\xe8?'
p162
tp163
Rp164
ag3
(g7
S'\xb3\xaf\xc9Xt\x05\xe6?'
p165
tp166
Rp167
as(I14
I10
I0
tp168
(lp169
F0.17569708824157715
ag3
(g7
S"8nJ'2\xed\xd5?"
p170
tp171
Rp172
ag3
(g7
S'\xd7\xfc\x01\xfbS\x8c\xcf?'
p173
tp174
Rp175
as(I22
I4
I1
tp176
(lp177
F0.07684087753295898
ag3
(g7
S'\xdb\xb0\xd2\xee\xc5\x1a\xc0?'
p178
tp179
Rp180
ag3
(g7
S'\t\xb4\xca\x0e@M\xb4?'
p181
tp182
Rp183
as(I22
I6
I0
tp184
(lp185
F0.10077190399169922
ag3
(g7
S'\x18\x94\xc7\x04q=\xbe?'
p186
tp187
Rp188
ag3
(g7
S'O\xd9\x8a\x7fT\xe4\xb2?'
p189
tp190
Rp191
as(I18
I10
I1
tp192
(lp193
F0.1887049674987793
ag3
(g7
S'\xd6t\xe6\xe0k\xc1\xd2?'
p194
tp195
Rp196
ag3
(g7
S'\xc4gx`7\xce\xca?'
p197
tp198
Rp199
as(I20
I28
I0
tp200
(lp201
F0.39364004135131836
ag3
(g7
S'T\xc8\x91\xb5\xd8\xcd\xd2?'
p202
tp203
Rp204
ag3
(g7
S'-\x839\x99\xc6B\xcb?'
p205
tp206
Rp207
as(I16
I6
I0
tp208
(lp209
F0.09740710258483887
ag3
(g7
S'\x8byo\xb2Q\xf1\xcb?'
p210
tp211
Rp212
ag3
(g7
S'\xdf\xe8Q,\xd2\x96\xc2?'
p213
tp214
Rp215
as(I14
I20
I1
tp216
(lp217
F0.4648258686065674
ag3
(g7
S'\xfb\x1e;\x8f\xf1M\xe3?'
p218
tp219
Rp220
ag3
(g7
S'S|h\x8e|\x9d\xdf?'
p221
tp222
Rp223
as(I22
I1
I1
tp224
(lp225
F0.03204703330993652
ag3
(g7
S'\x1f/\xc5\x8d\xcb\xfa\xa8?'
p226
tp227
Rp228
ag3
(g7
S'O\xdaF0\xce#\x9d?'
p229
tp230
Rp231
as(I22
I22
I2
tp232
(lp233
F0.4216580390930176
ag3
(g7
S"\xa9\xfdv\xab'7\xd6?"
p234
tp235
Rp236
ag3
(g7
S'<\xc2\xca\xfc\x90\xb7\xd0?'
p237
tp238
Rp239
as(I22
I8
I1
tp240
(lp241
F0.14406490325927734
ag3
(g7
S'KP\xb9\x99$\x1b\xc8?'
p242
tp243
Rp244
ag3
(g7
S'`oS\xbd\x83\x02\xc0?'
p245
tp246
Rp247
as(I20
I2
I4
tp248
(lp249
F0.06369185447692871
ag3
(g7
S'\x95\x95d\x80@\xbd\xcb?'
p250
tp251
Rp252
ag3
(g7
S'?&\x05\xf9X8\xc3?'
p253
tp254
Rp255
as(I18
I22
I1
tp256
(lp257
F0.3812599182128906
ag3
(g7
S'\xe2\xf0\xa8\xda\xd40\xda?'
p258
tp259
Rp260
ag3
(g7
S'!\xa6j\xd0\xd0\xcf\xd3?'
p261
tp262
Rp263
as(I20
I8
I0
tp264
(lp265
F0.12349891662597656
ag3
(g7
S'\xe4\xfd\xab\xfc7\x08\xc5?'
p266
tp267
Rp268
ag3
(g7
S'\xad\xe8\x10\x11^C\xbb?'
p269
tp270
Rp271
as(I18
I1
I0
tp272
(lp273
F0.024335145950317383
ag3
(g7
S'\x9fw\xdf\xbc\x96m\xa6?'
p274
tp275
Rp276
ag3
(g7
S'\x03W\xb4\xe7\xcb\x88\x99?'
p277
tp278
Rp279
as(I20
I22
I4
tp280
(lp281
F0.6992690563201904
ag3
(g7
S'C\xabi\x0e;$\xe3?'
p282
tp283
Rp284
ag3
(g7
S'\x98\xb8\x83\x08\xb5\x86\xdf?'
p285
tp286
Rp287
as(I16
I10
I0
tp288
(lp289
F0.15348410606384277
ag3
(g7
S'1h\xee\xcc\xbb\xf2\xd0?'
p290
tp291
Rp292
ag3
(g7
S'o\x9c5\x8b\x8ab\xc7?'
p293
tp294
Rp295
as(I14
I8
I1
tp296
(lp297
F0.18268895149230957
ag3
(g7
S'\x02\x83o\xa6\x87\x8d\xd9?'
p298
tp299
Rp300
ag3
(g7
S'K\xea\x83I\xd0\xfa\xd2?'
p301
tp302
Rp303
as(I22
I26
I2
tp304
(lp305
F0.4942929744720459
ag3
(g7
S'G5\xf7\xa4\xe4,\xd8?'
p306
tp307
Rp308
ag3
(g7
S'k\xb1\x9b%TV\xd2?'
p309
tp310
Rp311
as(I22
I28
I2
tp312
(lp313
F0.5422079563140869
ag3
(g7
S'\xbeR\x1e\x90\xd1\\\xd8?'
p314
tp315
Rp316
ag3
(g7
S'\xa0C\xc7j\xa6\x8d\xd2?'
p317
tp318
Rp319
as(I20
I30
I1
tp320
(lp321
F0.4855949878692627
ag3
(g7
S'E\xeey\xf1\xe89\xd8?'
p322
tp323
Rp324
ag3
(g7
S'j\xa8\x05\xd4>\\\xd2?'
p325
tp326
Rp327
as(I22
I2
I0
tp328
(lp329
F0.03811192512512207
ag3
(g7
S'\x9a\xee\r\xd7f\xa4\xab?'
p330
tp331
Rp332
ag3
(g7
S'\xc8\xf1\x05\xf7\xe0\xd6\x9f?'
p333
tp334
Rp335
as(I14
I26
I2
tp336
(lp337
F1.4854199886322021
ag3
(g7
S'\x16\xb2\xc3\xf0O+\xe9?'
p338
tp339
Rp340
ag3
(g7
S'\xe8\x0c\xa4\x8d\xf5=\xe6?'
p341
tp342
Rp343
as(I20
I4
I0
tp344
(lp345
F0.06601190567016602
ag3
(g7
S'_X{\xa6\xf8\xd0\xbc?'
p346
tp347
Rp348
ag3
(g7
S'\x7f\x15A\x80\xed\xf2\xb1?'
p349
tp350
Rp351
as(I16
I24
I4
tp352
(lp353
F1.2480640411376953
ag3
(g7
S'\x9f\xb1YN/\x89\xeb?'
p354
tp355
Rp356
ag3
(g7
S'\x92f{\x94I;\xe9?'
p357
tp358
Rp359
as(I16
I30
I0
tp360
(lp361
F0.4114508628845215
ag3
(g7
S'\x12\x7fm4\x0b\xcc\xdb?'
p362
tp363
Rp364
ag3
(g7
S'[P$\xf8\xf56\xd5?'
p365
tp366
Rp367
as(I22
I14
I2
tp368
(lp369
F0.2685990333557129
ag3
(g7
S'\xec\xea\xb7\xde/R\xd2?'
p370
tp371
Rp372
ag3
(g7
S'\xd4OO\xf7\x03y\xca?'
p373
tp374
Rp375
as(I16
I20
I4
tp376
(lp377
F1.0855159759521484
ag3
(g7
S'\xe3\xc4\xed\x1b\x19,\xea?'
p378
tp379
Rp380
ag3
(g7
S'\x86\xb4\xab\xd9\x95\x8d\xe7?'
p381
tp382
Rp383
as(I20
I10
I1
tp384
(lp385
F0.16672611236572266
ag3
(g7
S'\xf0\xf77\x0e\xfa\x08\xcf?'
p386
tp387
Rp388
ag3
(g7
S'F\xdaR\xfa1\xa6\xc5?'
p389
tp390
Rp391
as(I22
I12
I0
tp392
(lp393
F0.18263792991638184
ag3
(g7
S'\xae\xec}\xe1\xab \xc6?'
p394
tp395
Rp396
ag3
(g7
S'T\x9d\x92\xa7\x96\x08\xbd?'
p397
tp398
Rp399
as(I16
I12
I1
tp400
(lp401
F0.2558729648590088
ag3
(g7
S'\x13\xd5\xe8]\xf65\xd9?'
p402
tp403
Rp404
ag3
(g7
S'\xca\x11t_\x81\x02\xd3?'
p405
tp406
Rp407
as(I14
I14
I2
tp408
(lp409
F0.5239510536193848
ag3
(g7
S'\xb3\xf0\xe4\xcc\xc7\xbc\xe4?'
p410
tp411
Rp412
ag3
(g7
S'\xdf\xc8`\xd1\x98J\xe1?'
p413
tp414
Rp415
as(I14
I16
I2
tp416
(lp417
F0.5977010726928711
ag3
(g7
S'\x8e\x9b\xd2\x89L{\xe5?'
p418
tp419
Rp420
ag3
(g7
S'\x1b!\x89\xad\x87\x04\xe2?'
p421
tp422
Rp423
as(I20
I24
I2
tp424
(lp425
F0.453747034072876
ag3
(g7
S'\xacI\x1d\xe0\xeaF\xdb?'
p426
tp427
Rp428
ag3
(g7
S'\xe7yz\xc0\x04\xfa\xd4?'
p429
tp430
Rp431
as(I12
I10
I4
tp432
(lp433
F1.8089280128479004
ag3
(g7
S'\x8d\xe0\xdd\xc0\x860\xed?'
p434
tp435
Rp436
ag3
(g7
S'\x9c\x00:z\x91\x98\xeb?'
p437
tp438
Rp439
as(I20
I6
I1
tp440
(lp441
F0.10979700088500977
ag3
(g7
S'$\x88n\xe4\xf1\xe1\xc8?'
p442
tp443
Rp444
ag3
(g7
S'\xc8 r\xd5py\xc0?'
p445
tp446
Rp447
as(I16
I16
I1
tp448
(lp449
F0.2967231273651123
ag3
(g7
S'v\x0c4\x06\xa3Z\xdc?'
p450
tp451
Rp452
ag3
(g7
S'\xbd\xcb\xbe&c\xd1\xd5?'
p453
tp454
Rp455
as(I14
I2
I2
tp456
(lp457
F0.07346606254577637
ag3
(g7
S'\xaa\xcc\x92k\xa4\x15\xd1?'
p458
tp459
Rp460
ag3
(g7
S'^\xe9\xaf\x04\x8f\xb6\xc7?'
p461
tp462
Rp463
as(I14
I4
I2
tp464
(lp465
F0.14655709266662598
ag3
(g7
S'\x18\x8f\x9e\x83\xa9 \xd9?'
p466
tp467
Rp468
ag3
(g7
S'%\x98\xa5\x18\xc2w\xd2?'
p469
tp470
Rp471
as(I22
I12
I4
tp472
(lp473
F0.37708497047424316
ag3
(g7
S'r\x00p\x87R\xe3\xd9?'
p474
tp475
Rp476
ag3
(g7
S'\x1dM\xc1y\xaa\xe8\xd3?'
p477
tp478
Rp479
as(I20
I20
I2
tp480
(lp481
F0.37694597244262695
ag3
(g7
S'\x7f\xcd\x84)\xdf\x9f\xd9?'
p482
tp483
Rp484
ag3
(g7
S'q\xd2\xbfY<\x80\xd3?'
p485
tp486
Rp487
as(I20
I18
I2
tp488
(lp489
F0.3446979522705078
ag3
(g7
S'\xb46)\xc2\xe2\x90\xd8?'
p490
tp491
Rp492
ag3
(g7
S'\xa0\x0evZ\xd5\x8e\xd2?'
p493
tp494
Rp495
as(I12
I12
I0
tp496
(lp497
F0.28806281089782715
ag3
(g7
S'\x8cjq<bz\xde?'
p498
tp499
Rp500
ag3
(g7
S'\xed$2p\xc8m\xd7?'
p501
tp502
Rp503
as(I14
I1
I4
tp504
(lp505
F0.08567619323730469
ag3
(g7
S'okQK\x07A\xd2?'
p506
tp507
Rp508
ag3
(g7
S'\xfd\xf4t?\x90\xa7\xc9?'
p509
tp510
Rp511
as(I22
I16
I0
tp512
(lp513
F0.23098087310791016
ag3
(g7
S'\xfb\xad\xf7\x8b\x94\xb4\xc9?'
p514
tp515
Rp516
ag3
(g7
S'\x9c`\x8a\x98\xa4\\\xc1?'
p517
tp518
Rp519
as(I16
I1
I4
tp520
(lp521
F0.0639650821685791
ag3
(g7
S'j\xa9\xc1\x84\xb8\x9b\xcc?'
p522
tp523
Rp524
ag3
(g7
S'-5\x98\x10w\x93\xc3?'
p525
tp526
Rp527
as(I20
I32
I0
tp528
(lp529
F0.4399290084838867
ag3
(g7
S'\xa0\xcdZ\xe6\x81\xd7\xd3?'
p530
tp531
Rp532
ag3
(g7
S'V\x10\xcb\x19N\x00\xcd?'
p533
tp534
Rp535
as(I20
I14
I2
tp536
(lp537
F0.27884507179260254
ag3
(g7
S'\x978\xc5\x81\x01\x97\xd6?'
p538
tp539
Rp540
ag3
(g7
S'\xf7\x1b\rb\xb6\xd0\xd0?'
p541
tp542
Rp543
as(I12
I24
I0
tp544
(lp545
F0.6101539134979248
ag3
(g7
S'W8\x96\x15#\x07\xe4?'
p546
tp547
Rp548
ag3
(g7
S'\xa7\xc0K\xfa\xba}\xe0?'
p549
tp550
Rp551
as(I12
I22
I4
tp552
(lp553
F4.4245641231536865
ag3
(g7
S'\x9eO\x14\xc1\xc1f\xef?'
p554
tp555
Rp556
ag3
(g7
S't\x17\xc5\xabD\xf4\xee?'
p557
tp558
Rp559
as(I18
I16
I4
tp560
(lp561
F0.5935070514678955
ag3
(g7
S'A\xf7\x15(0u\xe4?'
p562
tp563
Rp564
ag3
(g7
S'L\x05\xc90\xa9\t\xe1?'
p565
tp566
Rp567
as(I22
I30
I4
tp568
(lp569
F0.8967249393463135
ag3
(g7
S'\x0cH-\x9a\x11\xb0\xe1?'
p570
tp571
Rp572
ag3
(g7
S'&\xd7H+"\xb0\xdc?'
p573
tp574
Rp575
as(I18
I10
I0
tp576
(lp577
F0.1526200771331787
ag3
(g7
S'S*Z5\xdf\x10\xcd?'
p578
tp579
Rp580
ag3
(g7
S'#\x83Ec*\xc5\xc3?'
p581
tp582
Rp583
as(I18
I4
I4
tp584
(lp585
F0.14948010444641113
ag3
(g7
S'\xc4\xb4]8\r>\xd8?'
p586
tp587
Rp588
ag3
(g7
S'4B\x95M\xa8)\xd2?'
p589
tp590
Rp591
as(I14
I18
I4
tp592
(lp593
F2.800379991531372
ag3
(g7
S'\xa2\xec\x0c\x9e\xa8\xc3\xec?'
p594
tp595
Rp596
ag3
(g7
S'\xbc(^%\xa2\xf7\xea?'
p597
tp598
Rp599
as(I12
I14
I1
tp600
(lp601
F0.5651040077209473
ag3
(g7
S'\xec<\xc67\xcd\xde\xe4?'
p602
tp603
Rp604
ag3
(g7
S'\xbb\xe3\xd5\xe0\x00c\xe1?'
p605
tp606
Rp607
as(I14
I20
I0
tp608
(lp609
F0.3852360248565674
ag3
(g7
S':m\x0b\x84\x1f\x8d\xdd?'
p610
tp611
Rp612
ag3
(g7
S'\xd6\xe6\xe5\x94B\x9a\xd6?'
p613
tp614
Rp615
as(I22
I22
I1
tp616
(lp617
F0.3669288158416748
ag3
(g7
S'\xe8\x9a\xa4\xd9\x1ee\xd2?'
p618
tp619
Rp620
ag3
(g7
S'Lv\x0c4\x06\xa3\xca?'
p621
tp622
Rp623
as(I14
I30
I4
tp624
(lp625
F2.8767120838165283
ag3
(g7
S'\xfc\xbb\xb6^q\xcb\xee?'
p626
tp627
Rp628
ag3
(g7
S'\x05\xd5\xfa\x0c\x8c\xf9\xed?'
p629
tp630
Rp631
as(I22
I8
I0
tp632
(lp633
F0.1314859390258789
ag3
(g7
S'p\xa0\xa2[\xd8?\xc2?'
p634
tp635
Rp636
ag3
(g7
S'o\xd1\x86\x9b[a\xb7?'
p637
tp638
Rp639
as(I18
I22
I0
tp640
(lp641
F0.3047678470611572
ag3
(g7
S'\x02\xe8\xe8Ebn\xd4?'
p642
tp643
Rp644
ag3
(g7
S'\xbe\xb8S\xe0%}\xcd?'
p645
tp646
Rp647
as(I14
I32
I2
tp648
(lp649
F1.1454651355743408
ag3
(g7
S'W1\xf52hk\xea?'
p650
tp651
Rp652
ag3
(g7
S'\x17f\x17\xd7Z\xda\xe7?'
p653
tp654
Rp655
as(I18
I1
I1
tp656
(lp657
F0.02659296989440918
ag3
(g7
S'\xa7\xe6!\x875&\xb1?'
p658
tp659
Rp660
ag3
(g7
S'\x14:b\xfd\xd0\x16\xa4?'
p661
tp662
Rp663
as(I12
I26
I1
tp664
(lp665
F1.1735458374023438
ag3
(g7
S'n\x1a\xff\xa2\xe3\xf3\xe9?'
p666
tp667
Rp668
ag3
(g7
S'V\xe5\xcb\x0b\x0c;\xe7?'
p669
tp670
Rp671
as(I14
I8
I0
tp672
(lp673
F0.13549494743347168
ag3
(g7
S'b\xd3\x8d\xb9K\x83\xd2?'
p674
tp675
Rp676
ag3
(g7
S'\xf6\x89\x9fE?\xcc\xc9?'
p677
tp678
Rp679
as(I22
I26
I1
tp680
(lp681
F0.430466890335083
ag3
(g7
S'-\x96\xa4\xdf\x03\x97\xd3?'
p682
tp683
Rp684
ag3
(g7
S'\xe4KM\x85\x87\xb7\xcc?'
p685
tp686
Rp687
as(I12
I1
I0
tp688
(lp689
F0.029942035675048828
ag3
(g7
S'\xf0\xf2\x0e\x8d2\xec\xb9?'
p690
tp691
Rp692
ag3
(g7
S'\xd9C\x7f\xaeO\x7f\xaf?'
p693
tp694
Rp695
as(I18
I8
I1
tp696
(lp697
F0.1495678424835205
ag3
(g7
S'$\x05|K\xd13\xd1?'
p698
tp699
Rp700
ag3
(g7
S'\xbf&c\xd1\x15X\xc8?'
p701
tp702
Rp703
as(I20
I30
I0
tp704
(lp705
F0.4071919918060303
ag3
(g7
S'\xb31\x00A\x1bt\xd3?'
p706
tp707
Rp708
ag3
(g7
S'z\\G\x0b\xb4G\xcc?'
p709
tp710
Rp711
as(I12
I8
I2
tp712
(lp713
F0.49372410774230957
ag3
(g7
S'dc\x83t\xcf\x08\xe5?'
p714
tp715
Rp716
ag3
(g7
S'\x91\xa5\xa1\x99B\x94\xe1?'
p717
tp718
Rp719
as(I14
I26
I1
tp720
(lp721
F0.6647181510925293
ag3
(g7
S'\x1fS#\xb9R$\xe5?'
p722
tp723
Rp724
ag3
(g7
S'\xa8Su\xc7\xab\xc1\xe1?'
p725
tp726
Rp727
as(I12
I6
I2
tp728
(lp729
F0.344135046005249
ag3
(g7
S'w\xaak\x86\x9c\x17\xe2?'
p730
tp731
Rp732
ag3
(g7
S'\xd8\x87\xce4\x10\xf5\xdc?'
p733
tp734
Rp735
as(I18
I28
I4
tp736
(lp737
F1.0614259243011475
ag3
(g7
S'\xfc\xc2WA,g\xe8?'
p738
tp739
Rp740
ag3
(g7
S'\x8f\xd9\xb9\xeb2t\xe5?'
p741
tp742
Rp743
as(I22
I14
I1
tp744
(lp745
F0.2342209815979004
ag3
(g7
S'\xf5\x852u\xf1\xee\xce?'
p746
tp747
Rp748
ag3
(g7
S'\xc4k\xe50\x85\xab\xc5?'
p749
tp750
Rp751
as(I14
I6
I4
tp752
(lp753
F0.5431220531463623
ag3
(g7
S'x\xf0\xaf{\xb7\xeb\xe5?'
p754
tp755
Rp756
ag3
(g7
S'@\xcb\xdd[\r\x91\xe2?'
p757
tp758
Rp759
as(I20
I12
I4
tp760
(lp761
F0.48696303367614746
ag3
(g7
S'3\xcd\xe4y\xfd\xb2\xdd?'
p762
tp763
Rp764
ag3
(g7
S'\xf3\xf0\x139\xa6L\xd7?'
p765
tp766
Rp767
as(I18
I20
I1
tp768
(lp769
F0.33272600173950195
ag3
(g7
S'\x91(\x942cB\xd9?'
p770
tp771
Rp772
ag3
(g7
S'\x05\xa5\xd2}\x82\x17\xd3?'
p773
tp774
Rp775
as(I20
I10
I0
tp776
(lp777
F0.1522510051727295
ag3
(g7
S'y\xb8*Yy.\xc7?'
p778
tp779
Rp780
ag3
(g7
S'\x1b\xdbD\xb8l0\xbe?'
p781
tp782
Rp783
as(I16
I22
I4
tp784
(lp785
F1.7201311588287354
ag3
(g7
S'\x7f\xf6\x0b\xd6-\xe6\xea?'
p786
tp787
Rp788
ag3
(g7
S'w\x04\xd7rn\x7f\xe8?'
p789
tp790
Rp791
as(I20
I16
I4
tp792
(lp793
F0.5118110179901123
ag3
(g7
S'\xd1\x88\x13\xbdT\x96\xe1?'
p794
tp795
Rp796
ag3
(g7
S'\xf4\xc9\x81\xfb\xb1d\xdc?'
p797
tp798
Rp799
as(I12
I20
I2
tp800
(lp801
F1.415903091430664
ag3
(g7
S')hw\xa4\x86T\xeb?'
p802
tp803
Rp804
ag3
(g7
S'\x9c\xae+!\xf4\x0b\xe9?'
p805
tp806
Rp807
as(I16
I12
I0
tp808
(lp809
F0.18243408203125
ag3
(g7
S'E\x1e\xa2\x80\xf2\x1b\xd3?'
p810
tp811
Rp812
ag3
(g7
S'2\x114\x00\xbe(\xcb?'
p813
tp814
Rp815
as(I14
I14
I1
tp816
(lp817
F0.3392181396484375
ag3
(g7
S'\xc5\xd0^\xd0_\x8c\xe0?'
p818
tp819
Rp820
ag3
(g7
S'\xec8Yg\x7f\x01\xda?'
p821
tp822
Rp823
as(I12
I18
I2
tp824
(lp825
F1.2811980247497559
ag3
(g7
S'\xc5\xda\xb0\xd2\xee\xc5\xea?'
p826
tp827
Rp828
ag3
(g7
S'\x7f\xd9N\x8daX\xe8?'
p829
tp830
Rp831
as(I16
I2
I4
tp832
(lp833
F0.09454083442687988
ag3
(g7
S'\x11\xf3\xe4I\xd5#\xd4?'
p834
tp835
Rp836
ag3
(g7
S'\xe5\xb5\xef\xa5)\xb5\xcc?'
p837
tp838
Rp839
as(I18
I6
I2
tp840
(lp841
F0.1373000144958496
ag3
(g7
S'\xcda\x87d\x92\xef\xd2?'
p842
tp843
Rp844
ag3
(g7
S'\xa6\xe7\xdd7\xafe\xcb?'
p845
tp846
Rp847
as(I20
I24
I1
tp848
(lp849
F0.38463902473449707
ag3
(g7
S'1\xd7\xb9n%\r\xd6?'
p850
tp851
Rp852
ag3
(g7
S'\tw\x1ck:s\xd0?'
p853
tp854
Rp855
as(I12
I32
I4
tp856
(lp857
F6.279247045516968
ag3
(g7
S'\x0e7\xb7\xc2.\xba\xef?'
p858
tp859
Rp860
ag3
(g7
S'z>\xce\x11nz\xef?'
p861
tp862
Rp863
as(I18
I32
I1
tp864
(lp865
F0.5770978927612305
ag3
(g7
S'\x01\x15`\xb5\x97\xb2\xde?'
p866
tp867
Rp868
ag3
(g7
S'\x8b\x9d\xcd\xdd\xd8\x1a\xd8?'
p869
tp870
Rp871
as(I20
I6
I0
tp872
(lp873
F0.09894299507141113
ag3
(g7
S'u\xcd\x90\xf3B"\xc2?'
p874
tp875
Rp876
ag3
(g7
S'\x83j}\x06\xc6\xfc\xb6?'
p877
tp878
Rp879
as(I16
I16
I0
tp880
(lp881
F0.23186612129211426
ag3
(g7
S'6\xfb\x11\xb5z\xf5\xd5?'
p882
tp883
Rp884
ag3
(g7
S' W\x90\x89\xa0\x01\xd0?'
p885
tp886
Rp887
as(I14
I2
I1
tp888
(lp889
F0.05977606773376465
ag3
(g7
S";<'D\x9ck\xc8?"
p890
tp891
Rp892
ag3
(g7
S'\xdbO\xc6\x1f9\x17\xc0?'
p893
tp894
Rp895
as(I-1
I-1
I-1
tp896
(lp897
F1.383613109588623
aF1.0
aF1.0
as(I12
I30
I2
tp898
(lp899
F2.182039976119995
ag3
(g7
S'\xb9\xc9L\xaa\xa1\x93\xed?'
p900
tp901
Rp902
ag3
(g7
S'\xc0\xa1\xf8\xd6\x01+\xec?'
p903
tp904
Rp905
as(I18
I18
I2
tp906
(lp907
F0.37705087661743164
ag3
(g7
S'/\xde\xddCy\xc9\xdd?'
p908
tp909
Rp910
ag3
(g7
S'9\xa0g%\x96-\xd7?'
p911
tp912
Rp913
as(I18
I30
I0
tp914
(lp915
F0.41852498054504395
ag3
(g7
S'\x07)\xfe\xd4\x83\xe4\xd6?'
p916
tp917
Rp918
ag3
(g7
S'0\xfeK\xac\x19\xf5\xd0?'
p919
tp920
Rp921
as(I20
I20
I1
tp922
(lp923
F0.3288130760192871
ag3
(g7
S'h~Ei\x0f\xf7\xd4?'
p924
tp925
Rp926
ag3
(g7
S'v\x8a\xfd\x1d\xfc\xeb\xce?'
p927
tp928
Rp929
as(I18
I12
I2
tp930
(lp931
F0.2512221336364746
ag3
(g7
S'\x81\xdf\xb0\xcc\t\x94\xd9?'
p932
tp933
Rp934
ag3
(g7
S'z\xb0\xcd\xc5DS\xd3?'
p935
tp936
Rp937
as(I16
I14
I1
tp938
(lp939
F0.25006699562072754
ag3
(g7
S'\xb0\x03\xd3\x05\x9e1\xdb?'
p940
tp941
Rp942
ag3
(g7
S'x\xc7(\xcfh\xa5\xd4?'
p943
tp944
Rp945
as(I16
I26
I4
tp946
(lp947
F1.3681440353393555
ag3
(g7
S' \x81\xd3\xe6h\x87\xeb?'
p948
tp949
Rp950
ag3
(g7
S'Ky@Fsa\xe9?'
p951
tp952
Rp953
as(I12
I4
I4
tp954
(lp955
F0.6355860233306885
ag3
(g7
S'VL\xbd\x0c\xda\x9a\xe6?'
p956
tp957
Rp958
ag3
(g7
S'9\x8ft@LX\xe3?'
p959
tp960
Rp961
as(I12
I2
I0
tp962
(lp963
F0.050364017486572266
ag3
(g7
S'\xfb\x12q+o\x95\xc4?'
p964
tp965
Rp966
ag3
(g7
S'\xf0\xf2\x0e\x8d2\xec\xb9?'
p967
tp968
Rp969
as(I18
I24
I2
tp970
(lp971
F0.5057418346405029
ag3
(g7
S'\xb6[\xc0\xabJ\xd9\xe0?'
p972
tp973
Rp974
ag3
(g7
S'\x06\xc7\xb8G\x16\xc2\xda?'
p975
tp976
Rp977
as(I16
I18
I1
tp978
(lp979
F0.3387420177459717
ag3
(g7
S'\xb5\x0f\x97\x84\xee\xa8\xdd?'
p980
tp981
Rp982
ag3
(g7
S'\xc3\xec\xe2ZK\xfb\xd6?'
p983
tp984
Rp985
as(I12
I14
I0
tp986
(lp987
F0.32982397079467773
ag3
(g7
S'\x16;\x9b\xbb\xb15\xe0?'
p988
tp989
Rp990
ag3
(g7
S'\xcd\xbb\xf2PdW\xd9?'
p991
tp992
Rp993
as(I16
I6
I2
tp994
(lp995
F0.14259600639343262
ag3
(g7
S'\x91\xaa\xca\x1a\n\xb1\xd6?'
p996
tp997
Rp998
ag3
(g7
S'\xfe\x86\xe2[\x07\xac\xd0?'
p999
tp1000
Rp1001
as(I22
I22
I0
tp1002
(lp1003
F0.3187069892883301
ag3
(g7
S"_#*\x96'\xd2\xcc?"
p1004
tp1005
Rp1006
ag3
(g7
S'\xa5[UMy\xbd\xc3?'
p1007
tp1008
Rp1009
as(I14
I28
I4
tp1010
(lp1011
F2.6338229179382324
ag3
(g7
S'\x86\x9e\x8fs\x84\x9b\xee?'
p1012
tp1013
Rp1014
ag3
(g7
S'\xb5\xa5\xf4cL\xab\xed?'
p1015
tp1016
Rp1017
as(I22
I32
I1
tp1018
(lp1019
F0.5264921188354492
ag3
(g7
S'[\x85u\x08\xc75\xd5?'
p1020
tp1021
Rp1022
ag3
(g7
S'\xce\x88\x96\xaf\xed\xb6\xcf?'
p1023
tp1024
Rp1025
as(I12
I28
I4
tp1026
(lp1027
F5.649812936782837
ag3
(g7
S'\x0e\xd6\xaa\xf3\xa1\xb6\xef?'
p1028
tp1029
Rp1030
ag3
(g7
S'\xdb\xeb\x081\xd8u\xef?'
p1031
tp1032
Rp1033
as(I16
I20
I2
tp1034
(lp1035
F0.479140043258667
ag3
(g7
S'\x8d\xdf!\x10\r\xf1\xe2?'
p1036
tp1037
Rp1038
ag3
(g7
S'\xb7v\x05\x93#\xe8\xde?'
p1039
tp1040
Rp1041
as(I12
I26
I0
tp1042
(lp1043
F0.685474157333374
ag3
(g7
S'\xf2i\xb4\xcf7\xc1\xe4?'
p1044
tp1045
Rp1046
ag3
(g7
S'B\x1e%s\x8b<\xe1?'
p1047
tp1048
Rp1049
as(I16
I10
I2
tp1050
(lp1051
F0.2552490234375
ag3
(g7
S'$#\xf5D\x17\x01\xde?'
p1052
tp1053
Rp1054
ag3
(g7
S'1\xf7\xaa\xc9^Y\xd7?'
p1055
tp1056
Rp1057
as(I12
I16
I4
tp1058
(lp1059
F2.8959641456604004
ag3
(g7
S'3\xf6k&L\xf9\xee?'
p1060
tp1061
Rp1062
ag3
(g7
S'\xdaX\xdfc\xe71\xee?'
p1063
tp1064
Rp1065
as(I12
I1
I1
tp1066
(lp1067
F0.03923511505126953
ag3
(g7
S'c\xa7\xd2\xfa\x8f~\xc2?'
p1068
tp1069
Rp1070
ag3
(g7
S'h1`\x919\x87\xb7?'
p1071
tp1072
Rp1073
as(I18
I14
I4
tp1074
(lp1075
F0.5300650596618652
ag3
(g7
S'd\xd0Y\xa7\xde\xc4\xe3?'
p1076
tp1077
Rp1078
ag3
(g7
S'Q/\x06\xa9?N\xe0?'
p1079
tp1080
Rp1081
as(I18
I8
I0
tp1082
(lp1083
F0.1261441707611084
ag3
(g7
S'\x02\xe4{u\x14\x91\xc9?'
p1084
tp1085
Rp1086
ag3
(g7
S'7\xff~\x85\xc8\xd2\xc0?'
p1087
tp1088
Rp1089
as(I18
I2
I4
tp1090
(lp1091
F0.07875990867614746
ag3
(g7
S'\xa8\xef\xb7\xd8J \xd1?'
p1092
tp1093
Rp1094
ag3
(g7
S'\xc0/\xf9"+R\xc8?'
p1095
tp1096
Rp1097
as(I12
I8
I1
tp1098
(lp1099
F0.30443501472473145
ag3
(g7
S'\xfdH\xfb\xf9 \xb3\xe0?'
p1100
tp1101
Rp1102
ag3
(g7
S'\xa3\xd8\xe5\xa6\xf1/\xda?'
p1103
tp1104
Rp1105
as(I14
I26
I0
tp1106
(lp1107
F0.4459049701690674
ag3
(g7
S'\xbd\xfb\xe6\xb5l\xb3\xe0?'
p1108
tp1109
Rp1110
ag3
(g7
S'\x1a\xcaQ\xd3"[\xda?'
p1111
tp1112
Rp1113
as(I22
I20
I1
tp1114
(lp1115
F0.32875919342041016
ag3
(g7
S'\x15\xfa\x7fG^~\xd1?'
p1116
tp1117
Rp1118
ag3
(g7
S'\x1c\x14\x03\x99\x8b\x0c\xc9?'
p1119
tp1120
Rp1121
as(I16
I24
I2
tp1122
(lp1123
F0.6015470027923584
ag3
(g7
S'\x03\x87\xdcv\xd5j\xe4?'
p1124
tp1125
Rp1126
ag3
(g7
S'\xce|\xccKk\xfe\xe0?'
p1127
tp1128
Rp1129
as(I16
I30
I2
tp1130
(lp1131
F0.8711750507354736
ag3
(g7
S'f\xffB\x93\xd5F\xe6?'
p1132
tp1133
Rp1134
ag3
(g7
S'\xee\x8c\\/w\xec\xe2?'
p1135
tp1136
Rp1137
as(I22
I14
I0
tp1138
(lp1139
F0.20877695083618164
ag3
(g7
S'\\\xa22Q\x93\xc3\xc7?'
p1140
tp1141
Rp1142
ag3
(g7
S'\xc7\xe8o\xa5\xcb\xdc\xbf?'
p1143
tp1144
Rp1145
as(I18
I20
I0
tp1146
(lp1147
F0.285646915435791
ag3
(g7
S':\xcd[\xa22Q\xd3?'
p1148
tp1149
Rp1150
ag3
(g7
S'\x98\x113D\r\xaf\xcb?'
p1151
tp1152
Rp1153
as(I14
I4
I4
tp1154
(lp1155
F0.3127768039703369
ag3
(g7
S'\x14\xf1\xe9\xf5H\x84\xe1?'
p1156
tp1157
Rp1158
ag3
(g7
S'\x84\x0e\x9a\xb8\x00\x16\xdc?'
p1159
tp1160
Rp1161
as(I12
I20
I1
tp1162
(lp1163
F0.8651671409606934
ag3
(g7
S'bn\x14\x1aq\xa2\xe7?'
p1164
tp1165
Rp1166
ag3
(g7
S'\x01u\xb0\xd3\xaav\xe4?'
p1167
tp1168
Rp1169
as(I14
I14
I0
tp1170
(lp1171
F0.24996614456176758
ag3
(g7
S'bV\x80Rl1\xda?'
p1172
tp1173
Rp1174
ag3
(g7
S'2$\x9fF\xfb|\xd3?'
p1175
tp1176
Rp1177
as(I22
I24
I1
tp1178
(lp1179
F0.40636706352233887
ag3
(g7
S'\xcaF\xc5oR\x01\xd3?'
p1180
tp1181
Rp1182
ag3
(g7
S'\x9dj\xdc\x9a3\x96\xcb?'
p1183
tp1184
Rp1185
as(I14
I16
I4
tp1186
(lp1187
F1.436269998550415
ag3
(g7
S'\xceBR\xba\xd2\xe2\xeb?'
p1188
tp1189
Rp1190
ag3
(g7
S't\xddJ\x1a\xac\xd8\xe9?'
p1191
tp1192
Rp1193
as(I20
I18
I4
tp1194
(lp1195
F0.5884990692138672
ag3
(g7
S'\x035\xce\x1d8\xde\xe1?'
p1196
tp1197
Rp1198
ag3
(g7
S'[\x08h\xa1\xe7\xe3\xdc?'
p1199
tp1200
Rp1201
as(I18
I6
I1
tp1202
(lp1203
F0.11146998405456543
ag3
(g7
S'c\x121\xcc\xab\xbb\xcc?'
p1204
tp1205
Rp1206
ag3
(g7
S'2\xc3\x92wny\xc3?'
p1207
tp1208
Rp1209
as(I20
I24
I0
tp1210
(lp1211
F0.32912611961364746
ag3
(g7
S'\x84\xd8\x8c\xf7\xb5\xd7\xd1?'
p1212
tp1213
Rp1214
ag3
(g7
S'\x85\x99f\xf2\xbc~\xc9?'
p1215
tp1216
Rp1217
as(I14
I1
I2
tp1218
(lp1219
F0.040728092193603516
ag3
(g7
S'\xea\xf5H\x84\xd1\xeb\xc4?'
p1220
tp1221
Rp1222
ag3
(g7
S'\x92N\xe7\xccD\xca\xbb?'
p1223
tp1224
Rp1225
as(I14
I24
I1
tp1226
(lp1227
F0.5905821323394775
ag3
(g7
S'\xb5c\x1d?\x7f\xb4\xe4?'
p1228
tp1229
Rp1230
ag3
(g7
S'D\xfb\xff\x05\xe51\xe1?'
p1231
tp1232
Rp1233
as(I18
I32
I0
tp1234
(lp1235
F0.4455530643463135
ag3
(g7
S'\xd7\xe3\xb1\x82\xd5\xdb\xd7?'
p1236
tp1237
Rp1238
ag3
(g7
S'\x05|K\xd13\xd1\xd1?'
p1239
tp1240
Rp1241
as(I18
I26
I4
tp1242
(lp1243
F0.9804399013519287
ag3
(g7
S'\xd5py\x10\x1e\xe4\xe7?'
p1244
tp1245
Rp1246
ag3
(g7
S'\xd2\xa8\x81%\xf5\xc1\xe4?'
p1247
tp1248
Rp1249
as(I14
I2
I0
tp1250
(lp1251
F0.04266786575317383
ag3
(g7
S'\xcf\xecS\x9eNX\xc0?'
p1252
tp1253
Rp1254
ag3
(g7
S'\xf9\xd4\x89\xc9\x88\x9c\xb4?'
p1255
tp1256
Rp1257
as(I22
I12
I1
tp1258
(lp1259
F0.21065998077392578
ag3
(g7
S'\x18\xfei%\x13;\xce?'
p1260
tp1261
Rp1262
ag3
(g7
S'\xed\xdb\xb9h@\xdb\xc4?'
p1263
tp1264
Rp1265
as(I18
I18
I1
tp1266
(lp1267
F0.3124828338623047
ag3
(g7
S'\xc4\xe9\xaeH\xde<\xd8?'
p1268
tp1269
Rp1270
ag3
(g7
S'\xae\xe4 NwE\xd2?'
p1271
tp1272
Rp1273
as(I20
I20
I0
tp1274
(lp1275
F0.28472399711608887
ag3
(g7
S'\xd9r\xeb\x8c\xdf!\xd0?'
p1276
tp1277
Rp1278
ag3
(g7
S'\x8f.\xfcV=\xbf\xc6?'
p1279
tp1280
Rp1281
as(I16
I8
I4
tp1282
(lp1283
F0.43488001823425293
ag3
(g7
S'\xa780\xe0\xd2\xb2\xe3?'
p1284
tp1285
Rp1286
ag3
(g7
S'\x94b\x8b\xd1b=\xe0?'
p1287
tp1288
Rp1289
as(I16
I14
I0
tp1290
(lp1291
F0.19965004920959473
ag3
(g7
S'\xf0W\x88,\r\xcd\xd4?'
p1292
tp1293
Rp1294
ag3
(g7
S'%\xf79\x86[\xfc\xcd?'
p1295
tp1296
Rp1297
as(I14
I12
I1
tp1298
(lp1299
F0.28375816345214844
ag3
(g7
S'uL\x16\xbc\x15\xf3\xde?'
p1300
tp1301
Rp1302
ag3
(g7
S'\x129)?\xf0\xf7\xd7?'
p1303
tp1304
Rp1305
as(I22
I30
I2
tp1306
(lp1307
F0.5846328735351562
ag3
(g7
S'\r\xd4\xb5\x84GX\xd9?'
p1308
tp1309
Rp1310
ag3
(g7
S'\xf1\xa19\xf2u~\xd3?'
p1311
tp1312
Rp1313
as(I16
I4
I4
tp1314
(lp1315
F0.20788788795471191
ag3
(g7
S'u\xb6\xb8\xdc\xb7\xf0\xde?'
p1316
tp1317
Rp1318
ag3
(g7
S'\xcc\xf3ws\xa2\x14\xd8?'
p1319
tp1320
Rp1321
as(I22
I16
I2
tp1322
(lp1323
F0.3082869052886963
ag3
(g7
S'\xa4R\xbf\xfbc\xc3\xd3?'
p1324
tp1325
Rp1326
ag3
(g7
S'T3\xf0\x86\xf4\n\xcd?'
p1327
tp1328
Rp1329
as(I20
I26
I1
tp1330
(lp1331
F0.4113290309906006
ag3
(g7
S'\x1a\x84\r\xde\x07\x87\xd6?'
p1332
tp1333
Rp1334
ag3
(g7
S'\xfb\xa0qw\x98\xbc\xd0?'
p1335
tp1336
Rp1337
as(I14
I30
I2
tp1338
(lp1339
F1.1114468574523926
ag3
(g7
S'\xaa\xe2\xae\xd1\xb5\x07\xea?'
p1340
tp1341
Rp1342
ag3
(g7
S'\x0f\xf8\x90\xbd5a\xe7?'
p1343
tp1344
Rp1345
as(I18
I30
I1
tp1346
(lp1347
F0.5172450542449951
ag3
(g7
S')\xe6@\xbc\xdf\xe5\xdd?'
p1348
tp1349
Rp1350
ag3
(g7
S'\xee\xcc\xbb\xf2Pd\xd7?'
p1351
tp1352
Rp1353
as(I20
I14
I4
tp1354
(lp1355
F0.4420619010925293
ag3
(g7
S'\x12U*\xd7BF\xe0?'
p1356
tp1357
Rp1358
ag3
(g7
S'w\xc3\xbb\xfe\x1a\xc8\xd9?'
p1359
tp1360
Rp1361
as(I16
I18
I0
tp1362
(lp1363
F0.24615001678466797
ag3
(g7
S'\xfd\x0c\t\x07\x95\x18\xd7?'
p1364
tp1365
Rp1366
ag3
(g7
S'5W\xf5\x02@\xdc\xd0?'
p1367
tp1368
Rp1369
as(I22
I2
I2
tp1370
(lp1371
F0.0462188720703125
ag3
(g7
S'\\r\n\xc2\x89\xe1\xbc?'
p1372
tp1373
Rp1374
ag3
(g7
S'\x89\x9b\xd8n~\xbc\xb1?'
p1375
tp1376
Rp1377
as(I22
I4
I2
tp1378
(lp1379
F0.08440613746643066
ag3
(g7
S'\xc4\xcc\xf1\xff\x11\xaf\xc5?'
p1380
tp1381
Rp1382
ag3
(g7
S'q~9\x9f\xabt\xbc?'
p1383
tp1384
Rp1385
as(I20
I22
I1
tp1386
(lp1387
F0.35816001892089844
ag3
(g7
S'N\xb8`f:y\xd5?'
p1388
tp1389
Rp1390
ag3
(g7
S'\xc6\xdf\xd9S\xb6\xe2\xcf?'
p1391
tp1392
Rp1393
as(I14
I18
I2
tp1394
(lp1395
F1.0608398914337158
ag3
(g7
S'\x13\xed|%\xfb\xa6\xe6?'
p1396
tp1397
Rp1398
ag3
(g7
S'\xf8\xa2l\xcb$\\\xe3?'
p1399
tp1400
Rp1401
as(I14
I20
I2
tp1402
(lp1403
F0.7353360652923584
ag3
(g7
S'0X\xb7\x98\xeb\\\xe7?'
p1404
tp1405
Rp1406
ag3
(g7
S'\xb1\x83\x91\x8cQ!\xe4?'
p1407
tp1408
Rp1409
as(I22
I1
I4
tp1410
(lp1411
F0.03472185134887695
ag3
(g7
S'\xf3\xdd\xa8\xf2h\xf8\xbe?'
p1412
tp1413
Rp1414
ag3
(g7
S'.\t\xddQ\xbb\x8e\xb3?'
p1415
tp1416
Rp1417
as(I16
I32
I4
tp1418
(lp1419
F1.6656889915466309
ag3
(g7
S'\xac=S|h\x8e\xec?'
p1420
tp1421
Rp1422
ag3
(g7
S',\xb5\xd9\x89\xc3\xa3\xea?'
p1423
tp1424
Rp1425
as(I16
I28
I4
tp1426
(lp1427
F1.5071258544921875
ag3
(g7
S"\xca'\x90\xc5\x92\xf4\xeb?"
p1428
tp1429
Rp1430
ag3
(g7
S'\xb0\xa5\xfaH~\xec\xe9?'
p1431
tp1432
Rp1433
as(I22
I8
I2
tp1434
(lp1435
F0.16021108627319336
ag3
(g7
S'\x1e`\xa9\xcdN\x1c\xce?'
p1436
tp1437
Rp1438
ag3
(g7
S'k\xceXn \xe4\xc4?'
p1439
tp1440
Rp1441
as(I20
I2
I1
tp1442
(lp1443
F0.03987598419189453
ag3
(g7
S'\xbf\x0e\xcf\t\x11\xe7\xba?'
p1444
tp1445
Rp1446
ag3
(g7
S'\xd0_\x8c\x10\x06P\xb0?'
p1447
tp1448
Rp1449
as(I22
I32
I0
tp1450
(lp1451
F0.4639780521392822
ag3
(g7
S'\xc5\xd0^\xd0_\x8c\xd0?'
p1452
tp1453
Rp1454
ag3
(g7
S'hf\xb1\xa1\n\x86\xc7?'
p1455
tp1456
Rp1457
as(I14
I32
I4
tp1458
(lp1459
F2.9612410068511963
ag3
(g7
S'w^B_@\xe7\xee?'
p1460
tp1461
Rp1462
ag3
(g7
S'\xdd\t\xff7\x85"\xee?'
p1463
tp1464
Rp1465
as(I16
I20
I1
tp1466
(lp1467
F0.3480660915374756
ag3
(g7
S'\xf3\xa8W\xe2\x97\xf9\xde?'
p1468
tp1469
Rp1470
ag3
(g7
S'\x05@Y\xde\xa76\xd8?'
p1471
tp1472
Rp1473
as(I14
I6
I2
tp1474
(lp1475
F0.2010200023651123
ag3
(g7
S'\x96\xbb\xb7\x1a"E\xde?'
p1476
tp1477
Rp1478
ag3
(g7
S'7\xf8\xdd\xa2\r7\xd7?'
p1479
tp1480
Rp1481
as(I14
I8
I2
tp1482
(lp1483
F0.28221702575683594
ag3
(g7
S'U\xb4j\xbe!:\xe0?'
p1484
tp1485
Rp1486
ag3
(g7
S'E\x17\x01\x9e7\x80\xd9?'
p1487
tp1488
Rp1489
as(I12
I1
I2
tp1490
(lp1491
F0.0627450942993164
ag3
(g7
S'\x82\x9baFI\x1e\xcc?'
p1492
tp1493
Rp1494
ag3
(g7
S'Vp\x1b8a\xc4\xc2?'
p1495
tp1496
Rp1497
as(I20
I16
I2
tp1498
(lp1499
F0.31221604347229004
ag3
(g7
S'\xddzB;\xe2\xbb\xd7?'
p1500
tp1501
Rp1502
ag3
(g7
S'\x82\x9a\xa5\x95\xcf\xde\xd1?'
p1503
tp1504
Rp1505
as(I20
I30
I2
tp1506
(lp1507
F0.5694458484649658
ag3
(g7
S'\xba3\xef\xcaC\x91\xdd?'
p1508
tp1509
Rp1510
ag3
(g7
S'\xb9\x9b\x9c|\x8b0\xd7?'
p1511
tp1512
Rp1513
as(I12
I18
I4
tp1514
(lp1515
F3.607089042663574
ag3
(g7
S'/q\x07\x11j\r\xef?'
p1516
tp1517
Rp1518
ag3
(g7
S'\x12g\xd9l\x06[\xee?'
p1519
tp1520
Rp1521
as(I12
I8
I0
tp1522
(lp1523
F0.1863691806793213
ag3
(g7
S'\xab#\xcaE\t\xbf\xd8?'
p1524
tp1525
Rp1526
ag3
(g7
S'~\xe0\xefo\x1c\xf4\xd1?'
p1527
tp1528
Rp1529
as(I12
I6
I4
tp1530
(lp1531
F1.065709114074707
ag3
(g7
S'!\xcb\x84\xac\xd18\xea?'
p1532
tp1533
Rp1534
ag3
(g7
S'\xa0\x13\x9f\xdb\x9c\xab\xe7?'
p1535
tp1536
Rp1537
as(I12
I32
I2
tp1538
(lp1539
F2.2809131145477295
ag3
(g7
S'.?\xea\x12\x06\xcd\xed?'
p1540
tp1541
Rp1542
ag3
(g7
S'\xaf\xeerP\x06\x7f\xec?'
p1543
tp1544
Rp1545
as(I16
I24
I1
tp1546
(lp1547
F0.47681212425231934
ag3
(g7
S'\x0895\tTz\xe0?'
p1548
tp1549
Rp1550
ag3
(g7
S'q\x96\xcdf\xb0\xe5\xd9?'
p1551
tp1552
Rp1553
as(I20
I12
I2
tp1554
(lp1555
F0.2376551628112793
ag3
(g7
S'\xcc@]Kx\x84\xd5?'
p1556
tp1557
Rp1558
ag3
(g7
S'\xa0\xbcg\x018\x02\xd0?'
p1559
tp1560
Rp1561
as(I20
I10
I2
tp1562
(lp1563
F0.19803404808044434
ag3
(g7
S'\xa5[UMy\xbd\xd3?'
p1564
tp1565
Rp1566
ag3
(g7
S"l\xbb\xed'\xe3\x8f\xcc?"
p1567
tp1568
Rp1569
as(I12
I20
I0
tp1570
(lp1571
F0.5404648780822754
ag3
(g7
S'\xd4b\xba=A\xcd\xe2?'
p1572
tp1573
Rp1574
ag3
(g7
S'T\x91\xc8C\x14P\xde?'
p1575
tp1576
Rp1577
as(I22
I24
I0
tp1578
(lp1579
F0.35168886184692383
ag3
(g7
S"'>\xb79W\xef\xcd?"
p1580
tp1581
Rp1582
ag3
(g7
S'\xeeE\\\x89\xe2\xd8\xc4?'
p1583
tp1584
Rp1585
as(I20
I1
I0
tp1586
(lp1587
F0.02335190773010254
ag3
(g7
S'\xc3\xc3[\xae\xfc\xb4\xa5?'
p1588
tp1589
Rp1590
ag3
(g7
S'?+.z U\x98?'
p1591
tp1592
Rp1593
as(I18
I6
I0
tp1594
(lp1595
F0.10045886039733887
ag3
(g7
S'\xe2\xb6.I<\x15\xc5?'
p1596
tp1597
Rp1598
ag3
(g7
S'\xc5;\xbd\xa1{\xc9\xba?'
p1599
tp1600
Rp1601
as(I12
I10
I1
tp1602
(lp1603
F0.3743441104888916
ag3
(g7
S'7]WB\xe8\x17\xe2?'
p1604
tp1605
Rp1606
ag3
(g7
S'\x186\xefGQ\xf8\xdc?'
p1607
tp1608
Rp1609
as(I14
I24
I0
tp1610
(lp1611
F0.4172248840332031
ag3
(g7
S'T\x7f\x19\xaeP;\xe0?'
p1612
tp1613
Rp1614
ag3
(g7
S'M!\xca\xc8\xfbW\xd9?'
p1615
tp1616
Rp1617
as(I20
I6
I2
tp1618
(lp1619
F0.12678790092468262
ag3
(g7
S'\xd2\r\xfb\xc4\xcf\xa2\xcf?'
p1620
tp1621
Rp1622
ag3
(g7
S'\xaa\xd1\xbb\xeck2\xc6?'
p1623
tp1624
Rp1625
as(I22
I10
I4
tp1626
(lp1627
F0.2993760108947754
ag3
(g7
S'\xd7\x18\x03\x93\xa6\xda\xd7?'
p1628
tp1629
Rp1630
ag3
(g7
S'v\xd6&EX\x1c\xd2?'
p1631
tp1632
Rp1633
as(I12
I30
I4
tp1634
(lp1635
F6.135774850845337
ag3
(g7
S'\xce\x88\x96\xaf\xed\xb6\xef?'
p1636
tp1637
Rp1638
ag3
(g7
S'\xfa\xd8\xf6\x99\xd6y\xef?'
p1639
tp1640
Rp1641
as(I18
I24
I4
tp1642
(lp1643
F0.9113860130310059
ag3
(g7
S'3>(}ZL\xe7?'
p1644
tp1645
Rp1646
ag3
(g7
S'\xce)\x02BT2\xe4?'
p1647
tp1648
Rp1649
as(I22
I6
I4
tp1650
(lp1651
F0.17969202995300293
ag3
(g7
S'\xca{\x16\x80#\x00\xd3?'
p1652
tp1653
Rp1654
ag3
(g7
S'\x9c\x00:z\x91\x98\xcb?'
p1655
tp1656
Rp1657
as(I18
I18
I0
tp1658
(lp1659
F0.25788402557373047
ag3
(g7
S'\xc1\xd2Y$\xec+\xd3?'
p1660
tp1661
Rp1662
ag3
(g7
S'\xa2-(\x12\xfcz\xcb?'
p1663
tp1664
Rp1665
as(I18
I12
I4
tp1666
(lp1667
F0.45444202423095703
ag3
(g7
S'j>c\xb3\x9c^\xe2?'
p1668
tp1669
Rp1670
ag3
(g7
S'ih\xa6\x10e\xe4\xdd?'
p1671
tp1672
Rp1673
as(I14
I10
I4
tp1674
(lp1675
F0.912592887878418
ag3
(g7
S'\xd0\xa1c5\xd3F\xe9?'
p1676
tp1677
Rp1678
ag3
(g7
S'\x99J\xf1$,\x8b\xe6?'
p1679
tp1680
Rp1681
as(I12
I22
I1
tp1682
(lp1683
F0.9466488361358643
ag3
(g7
S'8\x8b\x07p\xfez\xe8?'
p1684
tp1685
Rp1686
ag3
(g7
S'O\xed\xb1v\x0bx\xe5?'
p1687
tp1688
Rp1689
as(I14
I12
I0
tp1690
(lp1691
F0.24587607383728027
ag3
(g7
S'\xcc\xf3ws\xa2\x14\xd8?'
p1692
tp1693
Rp1694
ag3
(g7
S'\rQ\xc3\xeb&\xaa\xd1?'
p1695
tp1696
Rp1697
as(I22
I30
I1
tp1698
(lp1699
F0.5012359619140625
ag3
(g7
S'\xfb\xdd\x1f\x1b\x9e\x96\xd4?'
p1700
tp1701
Rp1702
ag3
(g7
S'~\xfehib\xc1\xce?'
p1703
tp1704
Rp1705
as(I14
I22
I4
tp1706
(lp1707
F1.9923789501190186
ag3
(g7
S'\xb3g\r\x02f\xb2\xed?'
p1708
tp1709
Rp1710
ag3
(g7
S'wA\x85\x16tY\xec?'
p1711
tp1712
Rp1713
as(I20
I28
I4
tp1714
(lp1715
F0.8894579410552979
ag3
(g7
S'\xae-\x99U\xff\xd7\xe4?'
p1716
tp1717
Rp1718
ag3
(g7
S'\x95*\x06\xaf$\x80\xe1?'
p1719
tp1720
Rp1721
as(I18
I4
I1
tp1722
(lp1723
F0.07691478729248047
ag3
(g7
S"z\xf6\x11\xbb_'\xc7?"
p1724
tp1725
Rp1726
ag3
(g7
S'\x18\xfei%\x13;\xbe?'
p1727
tp1728
Rp1729
as(I20
I26
I0
tp1730
(lp1731
F0.35643792152404785
ag3
(g7
S'^N)\xa4i\x97\xd2?'
p1732
tp1733
Rp1734
ag3
(g7
S'\xd4\x1a\xfe\xe62z\xca?'
p1735
tp1736
Rp1737
as(I16
I6
I4
tp1738
(lp1739
F0.3123769760131836
ag3
(g7
S'\x02a\x89\xdc\xf3\xe2\xe1?'
p1740
tp1741
Rp1742
ag3
(g7
S'a\x00\x05)\x81\xc7\xdc?'
p1743
tp1744
Rp1745
as(I20
I32
I4
tp1746
(lp1747
F1.0022730827331543
ag3
(g7
S'\x02\xdc\x1e\xe2\xdf\xb5\xe5?'
p1748
tp1749
Rp1750
ag3
(g7
S'\xaa\xc0\xc8\x07"]\xe2?'
p1751
tp1752
Rp1753
as(I12
I4
I2
tp1754
(lp1755
F0.2320270538330078
ag3
(g7
S'\x95}\xd0\xb8;L\xde?'
p1756
tp1757
Rp1758
ag3
(g7
S'\xf6\x0b\xd6-\xe6:\xd7?'
p1759
tp1760
Rp1761
as(I14
I30
I1
tp1762
(lp1763
F0.7345640659332275
ag3
(g7
S'g\x9e6\xc4HC\xe6?'
p1764
tp1765
Rp1766
ag3
(g7
S'n\\\xd6\xc7\xb0\xea\xe2?'
p1767
tp1768
Rp1769
as(I12
I2
I2
tp1770
(lp1771
F0.12522196769714355
ag3
(g7
S'\xab;^\r\x0e0\xd6?'
p1772
tp1773
Rp1774
ag3
(g7
S'C\xc9\xe2\x07\x81\xf1\xcf?'
p1775
tp1776
Rp1777
as(I14
I28
I2
tp1778
(lp1779
F1.4528651237487793
ag3
(g7
S'C\xa4\xc8+\x80\x88\xe9?'
p1780
tp1781
Rp1782
ag3
(g7
S'\xb2k\xfd\xc4L\xb0\xe6?'
p1783
tp1784
Rp1785
as(I22
I2
I1
tp1786
(lp1787
F0.04172110557556152
ag3
(g7
S'\xdbKYO\xeb9\xb5?'
p1788
tp1789
Rp1790
ag3
(g7
S'\r\t\x07\x95\x18W\xa9?'
p1791
tp1792
Rp1793
as(I18
I16
I1
tp1794
(lp1795
F0.26729822158813477
ag3
(g7
S'\x1bXR\x1fL\x82\xd6?'
p1796
tp1797
Rp1798
ag3
(g7
S'\xc2\x89\xe1\x1cd\x99\xd0?'
p1799
tp1800
Rp1801
as(I18
I1
I4
tp1802
(lp1803
F0.04063105583190918
ag3
(g7
S'r\xb7\xf7\x7f\xcaP\xc7?'
p1804
tp1805
Rp1806
ag3
(g7
S'\xf3>\xb5\xc1\xf5\xfb\xbe?'
p1807
tp1808
Rp1809
as(I20
I22
I0
tp1810
(lp1811
F0.30102086067199707
ag3
(g7
S'@\x12\xde\x01\xa2\xa4\xd0?'
p1812
tp1813
Rp1814
ag3
(g7
S'j\x0e;$\x93|\xc7?'
p1815
tp1816
Rp1817
as(I12
I16
I2
tp1818
(lp1819
F0.946195125579834
ag3
(g7
S'n{\x0brp\xf7\xe9?'
p1820
tp1821
Rp1822
ag3
(g7
S'\x12t_\x81\x02S\xe7?'
p1823
tp1824
Rp1825
as(I14
I18
I1
tp1826
(lp1827
F0.45531296730041504
ag3
(g7
S'\x9e\xc7\xf8\xa6\xd9\x9b\xe2?'
p1828
tp1829
Rp1830
ag3
(g7
S'h\x94a\xcf \xe9\xdd?'
p1831
tp1832
Rp1833
as(I12
I14
I2
tp1834
(lp1835
F0.8578019142150879
ag3
(g7
S'l~?\x84\xdd\xb5\xe8?'
p1836
tp1837
Rp1838
ag3
(g7
S'\\\x1e\x84\x07\xf9\xd5\xe5?'
p1839
tp1840
Rp1841
as(I18
I2
I2
tp1842
(lp1843
F0.050904035568237305
ag3
(g7
S'\xad\x82\xdb\xc0\t#\xc6?'
p1844
tp1845
Rp1846
ag3
(g7
S'\\\xa7[\xd2Z\xe0\xbc?'
p1847
tp1848
Rp1849
as(I20
I4
I4
tp1850
(lp1851
F0.12237286567687988
ag3
(g7
S'\xc8i\xea\xdc\xf8\x0b\xd3?'
p1852
tp1853
Rp1854
ag3
(g7
S'\xaalBM\x91Q\xcb?'
p1855
tp1856
Rp1857
as(I18
I28
I1
tp1858
(lp1859
F0.4780590534210205
ag3
(g7
S'\xe7\xc7\x1bIT\xa9\xdc?'
p1860
tp1861
Rp1862
ag3
(g7
S'/\xfa\xde\xdb\xcb\x17\xd6?'
p1863
tp1864
Rp1865
as(I20
I2
I0
tp1866
(lp1867
F0.03659319877624512
ag3
(g7
S'r\x1cq\x1f\xa51\xb2?'
p1868
tp1869
Rp1870
ag3
(g7
S'\xdfo\xb1\x95@"\xa5?'
p1871
tp1872
Rp1873
as(I16
I30
I4
tp1874
(lp1875
F1.589689016342163
ag3
(g7
S'3o\x0c\xbd\xddm\xec?'
p1876
tp1877
Rp1878
ag3
(g7
S'\xb1sZX\x81\x8b\xea?'
p1879
tp1880
Rp1881
as(I20
I8
I4
tp1882
(lp1883
F0.26671695709228516
ag3
(g7
S'G\x1dc\xdd\xdf\xbb\xda?'
p1884
tp1885
Rp1886
ag3
(g7
S'\xc0SWN\xb2{\xd4?'
p1887
tp1888
Rp1889
as(I12
I28
I2
tp1890
(lp1891
F1.9905779361724854
ag3
(g7
S'\x80\xb2\xbcOmp\xed?'
p1892
tp1893
Rp1894
ag3
(g7
S'\x8cM\xb4\xf3\x95\xec\xeb?'
p1895
tp1896
Rp1897
as(I16
I20
I0
tp1898
(lp1899
F0.27269601821899414
ag3
(g7
S'^\xe9\xaf\x04\x8f\xb6\xd7?'
p1900
tp1901
Rp1902
ag3
(g7
S'\x13\xb3\x02\x94b\x8b\xd1?'
p1903
tp1904
Rp1905
as(I14
I6
I1
tp1906
(lp1907
F0.15306401252746582
ag3
(g7
S'\x87$3,y\xe7\xd6?'
p1908
tp1909
Rp1910
ag3
(g7
S'y)n\\\xd6\xc7\xd0?'
p1911
tp1912
Rp1913
as(I12
I26
I2
tp1914
(lp1915
F1.8181049823760986
ag3
(g7
S'\xe3w\x08DC\xbc\xec?'
p1916
tp1917
Rp1918
ag3
(g7
S'<\x8e5\x9d9\xf8\xea?'
p1919
tp1920
Rp1921
as(I16
I10
I4
tp1922
(lp1923
F0.5277090072631836
ag3
(g7
S'\x99!jx\xddD\xe5?'
p1924
tp1925
Rp1926
ag3
(g7
S'\xa3\xfa\xcbp\x85\xda\xe1?'
p1927
tp1928
Rp1929
as(I18
I14
I2
tp1930
(lp1931
F0.28736305236816406
ag3
(g7
S'\x9b,\xf58M\x9d\xdb?'
p1932
tp1933
Rp1934
ag3
(g7
S']\xc3\\j\xad.\xd5?'
p1935
tp1936
Rp1937
as(I20
I16
I1
tp1938
(lp1939
F0.2624390125274658
ag3
(g7
S"B\x0cv\xdd\xc7'\xd3?"
p1940
tp1941
Rp1942
ag3
(g7
S'\n@S\xf9u\xf5\xcb?'
p1943
tp1944
Rp1945
as(I18
I8
I2
tp1946
(lp1947
F0.1721479892730713
ag3
(g7
S'U\xb9\x93?\xe9V\xd5?'
p1948
tp1949
Rp1950
ag3
(g7
S"i'\x8b\x9c\x11-\xcf?"
p1951
tp1952
Rp1953
as(I16
I2
I1
tp1954
(lp1955
F0.05098104476928711
ag3
(g7
S'\x13f\x1d\xbc\x8c\x1b\xc4?'
p1956
tp1957
Rp1958
ag3
(g7
S"\xe4\x982]]'\xba?"
p1959
tp1960
Rp1961
as(I12
I32
I1
tp1962
(lp1963
F1.4028639793395996
ag3
(g7
S'\xb5\xf2\xd9;"\x1b\xeb?'
p1964
tp1965
Rp1966
ag3
(g7
S'\x0e\xe30\x08\x9e\xae\xe8?'
p1967
tp1968
Rp1969
as(I16
I24
I0
tp1970
(lp1971
F0.3264131546020508
ag3
(g7
S'\x86m\xab3\x01z\xd9?'
p1972
tp1973
Rp1974
ag3
(g7
S'\xfc\x91s\x01\xa9E\xd3?'
p1975
tp1976
Rp1977
as(I18
I26
I2
tp1978
(lp1979
F0.5371239185333252
ag3
(g7
S'\xdc\xe2\xef\xec)[\xe1?'
p1980
tp1981
Rp1982
ag3
(g7
S'W\xbb\x88\xaeC\xb5\xdb?'
p1983
tp1984
Rp1985
as(I20
I12
I1
tp1986
(lp1987
F0.20474505424499512
ag3
(g7
S'\xb5\xf1\x1d\x8b\xa8\xdb\xd0?'
p1988
tp1989
Rp1990
ag3
(g7
S'\xddzB;\xe2\xbb\xc7?'
p1991
tp1992
Rp1993
as(I18
I20
I2
tp1994
(lp1995
F0.4352891445159912
ag3
(g7
S'\xed{iJ-\x17\xdf?'
p1996
tp1997
Rp1998
ag3
(g7
S'B\xa7\xfc=\xedF\xd8?'
p1999
tp2000
Rp2001
as(I16
I22
I1
tp2002
(lp2003
F0.3975100517272949
ag3
(g7
S'\x96?fd\xbc2\xe0?'
p2004
tp2005
Rp2006
ag3
(g7
S'\x00\x07\xa1\xe2\xba\x9b\xd9?'
p2007
tp2008
Rp2009
as(I16
I26
I0
tp2010
(lp2011
F0.36518001556396484
ag3
(g7
S"\xc32'Pf\xcf\xda?"
p2012
tp2013
Rp2014
ag3
(g7
S'\x80\xd1\xf1\xf9,}\xd4?'
p2015
tp2016
Rp2017
as(I20
I1
I1
tp2018
(lp2019
F0.02622509002685547
ag3
(g7
S'\xe2!\x8d\x1aXR\xaf?'
p2020
tp2021
Rp2022
ag3
(g7
S'a\xca\xf7g6\x89\xa2?'
p2023
tp2024
Rp2025
as(I12
I12
I4
tp2026
(lp2027
F2.112617015838623
ag3
(g7
S'\xa3S{\xac\xdd\x02\xee?'
p2028
tp2029
Rp2030
ag3
(g7
S'c\xdd\xdf\xbb\xda\xbc\xec?'
p2031
tp2032
Rp2033
as(I14
I1
I0
tp2034
(lp2035
F0.05928182601928711
ag3
(g7
S'l\xba1wiP\xb2?'
p2036
tp2037
Rp2038
ag3
(g7
S"\xdd\xc7'\x13\xb8+\xa5?"
p2039
tp2040
Rp2041
as(I16
I4
I2
tp2042
(lp2043
F0.10378599166870117
ag3
(g7
S'F\x91\xda\xf2\xa9\x13\xd3?'
p2044
tp2045
Rp2046
ag3
(g7
S'\xaf/\x8e\xc4Y6\xcb?'
p2047
tp2048
Rp2049
as(I12
I10
I0
tp2050
(lp2051
F0.22724103927612305
ag3
(g7
S')\xfe\xd4\x83\xe4V\xdb?'
p2052
tp2053
Rp2054
ag3
(g7
S'FP\xbf~V\\\xd4?'
p2055
tp2056
Rp2057
as(I18
I32
I2
tp2058
(lp2059
F0.7035059928894043
ag3
(g7
S'\x95\x88\xdekD\xc5\xe2?'
p2060
tp2061
Rp2062
ag3
(g7
S'\r\x0e0\x16\xe0s\xde?'
p2063
tp2064
Rp2065
as(I16
I26
I1
tp2066
(lp2067
F0.46192312240600586
ag3
(g7
S'\xe1\xd1\xf6"\xaeD\xe1?'
p2068
tp2069
Rp2070
ag3
(g7
S'`\xce\xe7*\x1d\x87\xdb?'
p2071
tp2072
Rp2073
as(I16
I1
I1
tp2074
(lp2075
F0.025696992874145508
ag3
(g7
S'x\x197(\x062\xb7?'
p2076
tp2077
Rp2078
ag3
(g7
S'\x99\xb0&u\x80\xab\xab?'
p2079
tp2080
Rp2081
as(I16
I1
I0
tp2082
(lp2083
F0.02289295196533203
ag3
(g7
S'\xd0eqBG\xac\xaf?'
p2084
tp2085
Rp2086
ag3
(g7
S'j>c\xb3\x9c^\xa2?'
p2087
tp2088
Rp2089
as(I16
I8
I2
tp2090
(lp2091
F0.22759103775024414
ag3
(g7
S'\xab\x0b6~\x04N\xdb?'
p2092
tp2093
Rp2094
ag3
(g7
S'\xac\xef\xb1\xf3\x18\xdf\xd4?'
p2095
tp2096
Rp2097
as(I12
I22
I0
tp2098
(lp2099
F0.5789659023284912
ag3
(g7
S'W\xd7\x89F\x96\x03\xe4?'
p2100
tp2101
Rp2102
ag3
(g7
S')\x03\xfe\x04\xacs\xe0?'
p2103
tp2104
Rp2105
as(I16
I14
I2
tp2106
(lp2107
F0.33650803565979004
ag3
(g7
S'B\xef\xb8\x94\xfb\x99\xe0?'
p2108
tp2109
Rp2110
ag3
(g7
S'\x1c\xa7,f|P\xda?'
p2111
tp2112
Rp2113
as(I22
I30
I0
tp2114
(lp2115
F0.43706679344177246
ag3
(g7
S'\xc6\xdf\xd9S\xb6\xe2\xcf?'
p2116
tp2117
Rp2118
ag3
(g7
S'\x9e\xa3\x9a{Rr\xc6?'
p2119
tp2120
Rp2121
as(I22
I16
I4
tp2122
(lp2123
F0.513247013092041
ag3
(g7
S'\x81\x92\xcb\xf43$\xdc?'
p2124
tp2125
Rp2126
ag3
(g7
S';T\xbb\x0b\xa1\xdc\xd5?'
p2127
tp2128
Rp2129
as(I18
I4
I0
tp2130
(lp2131
F0.06787490844726562
ag3
(g7
S'\xc7\xe2\x8as\x8a\x80\xc0?'
p2132
tp2133
Rp2134
ag3
(g7
S'\xf7X\xbb\x05\xbc\xaa\xb4?'
p2135
tp2136
Rp2137
as(I14
I20
I4
tp2138
(lp2139
F1.87019681930542
ag3
(g7
S'\xfe\xa4[UMy\xed?'
p2140
tp2141
Rp2142
ag3
(g7
S'\x89;\x88Pk\xf8\xeb?'
p2143
tp2144
Rp2145
as(I22
I1
I2
tp2146
(lp2147
F0.036772966384887695
ag3
(g7
S'-\x96\xa4\xdf\x03\x97\xb3?'
p2148
tp2149
Rp2150
ag3
(g7
S'o\xd1\x86\x9b[a\xa7?'
p2151
tp2152
Rp2153
as(I12
I4
I1
tp2154
(lp2155
F0.1428689956665039
ag3
(g7
S'\x00\x89\xd7\xcaa\n\xd7?'
p2156
tp2157
Rp2158
ag3
(g7
S'\xc0\xe1W\x9a\xdb\xa2\xd0?'
p2159
tp2160
Rp2161
as(I14
I30
I0
tp2162
(lp2163
F0.5223278999328613
ag3
(g7
S'Hz\x7f\xe9\x85\xc1\xe1?'
p2164
tp2165
Rp2166
ag3
(g7
S'\xb7\xf8;{\xcaV\xdc?'
p2167
tp2168
Rp2169
as(I16
I28
I2
tp2170
(lp2171
F0.6694118976593018
ag3
(g7
S'\x0b\x85\xdb=\x17\x8a\xe5?'
p2172
tp2173
Rp2174
ag3
(g7
S'v73\x14\xe5\x1f\xe2?'
p2175
tp2176
Rp2177
as(I16
I18
I2
tp2178
(lp2179
F0.4210379123687744
ag3
(g7
S'o6\x00;6B\xe2?'
p2180
tp2181
Rp2182
ag3
(g7
S'\xbd\x83\x02\xd0T~\xdd?'
p2183
tp2184
Rp2185
as(I12
I24
I4
tp2186
(lp2187
F4.798019886016846
ag3
(g7
S'\x98\xb8\x83\x08\xb5\x86\xef?'
p2188
tp2189
Rp2190
ag3
(g7
S'\x8a\xf1S\x98i&\xef?'
p2191
tp2192
Rp2193
as(I18
I22
I4
tp2194
(lp2195
F0.82647705078125
ag3
(g7
S'\x8c\x1c\xd0\xb3\x12\xcb\xe6?'
p2196
tp2197
Rp2198
ag3
(g7
S'\x0e\xb2L\xc8\x1a\x8d\xe3?'
p2199
tp2200
Rp2201
as(I18
I16
I0
tp2202
(lp2203
F0.23237180709838867
ag3
(g7
S'\x01\xc2\x95\xab\x80\xe6\xd1?'
p2204
tp2205
Rp2206
ag3
(g7
S'\n\x8d8\xd1Ke\xc9?'
p2207
tp2208
Rp2209
as(I18
I10
I4
tp2210
(lp2211
F0.3883059024810791
ag3
(g7
S'I\xe4!\n(\xbf\xe1?'
p2212
tp2213
Rp2214
ag3
(g7
S'\xebL\x80^6\x95\xdc?'
p2215
tp2216
Rp2217
as(I12
I16
I1
tp2218
(lp2219
F0.5901219844818115
ag3
(g7
S'\xfd\x18\xd3j\x17\xd1\xe5?'
p2220
tp2221
Rp2222
ag3
(g7
S'Ht\x9a\xb7De\xe2?'
p2223
tp2224
Rp2225
as(I12
I1
I4
tp2226
(lp2227
F0.18782305717468262
ag3
(g7
S'\x9c\xc6\xbf\xe8\xf8|\xd6?'
p2228
tp2229
Rp2230
ag3
(g7
S'D\x97B\x17\x84\x90\xd0?'
p2231
tp2232
Rp2233
as(I14
I18
I0
tp2234
(lp2235
F0.31233811378479004
ag3
(g7
S'\xe3\xacYT\x14\xbb\xdc?'
p2236
tp2237
Rp2238
ag3
(g7
S'\x7f[\x85u\x08\xc7\xd5?'
p2239
tp2240
Rp2241
as(I22
I28
I1
tp2242
(lp2243
F0.4629969596862793
ag3
(g7
S'\x8e\x11?\x0eq1\xd4?'
p2244
tp2245
Rp2246
ag3
(g7
S'\xb2\xf4\xd4\x8f\xae\xba\xcd?'
p2247
tp2248
Rp2249
as(I16
I32
I2
tp2250
(lp2251
F0.7714719772338867
ag3
(g7
S'\x1a#\x01\x0f{\x83\xe6?'
p2252
tp2253
Rp2254
ag3
(g7
S'~52\xdb&?\xe3?'
p2255
tp2256
Rp2257
as(I18
I2
I1
tp2258
(lp2259
F0.04230499267578125
ag3
(g7
S'\xe3\xf5\xd1[\x9cM\xbf?'
p2260
tp2261
Rp2262
ag3
(g7
S'-j\xe9 H\x92\xb3?'
p2263
tp2264
Rp2265
as(I22
I8
I4
tp2266
(lp2267
F0.24610686302185059
ag3
(g7
S'\xab\xdaQ>\x81,\xd6?'
p2268
tp2269
Rp2270
ag3
(g7
S'\n\x16\x10\x9c\xado\xd0?'
p2271
tp2272
Rp2273
as(I14
I28
I1
tp2274
(lp2275
F0.6446819305419922
ag3
(g7
S'E\x06\x0e\xb9\xed\xaa\xe5?'
p2276
tp2277
Rp2278
ag3
(g7
S'KZ\x0b\x9c\xb3T\xe2?'
p2279
tp2280
Rp2281
as(I18
I28
I0
tp2282
(lp2283
F0.3856201171875
ag3
(g7
S'\r\x8b=}\xbf\xc5\xd6?'
p2284
tp2285
Rp2286
ag3
(g7
S'\xf3\xf7\xb4\x1ba\xe8\xd0?'
p2287
tp2288
Rp2289
as(I22
I32
I2
tp2290
(lp2291
F0.6098198890686035
ag3
(g7
S'\x96\xb6\x8e\x99Z(\xd9?'
p2292
tp2293
Rp2294
ag3
(g7
S'\xf8m\x1b\xbbS]\xd3?'
p2295
tp2296
Rp2297
as(I12
I28
I1
tp2298
(lp2299
F1.2024121284484863
ag3
(g7
S'\xa8f\xe0\r\xe9\x15\xea?'
p2300
tp2301
Rp2302
ag3
(g7
S'\x0cGq\xe9\x97p\xe7?'
p2303
tp2304
Rp2305
as(I14
I6
I0
tp2306
(lp2307
F0.10970211029052734
ag3
(g7
S'\xe1MH\xd9\x13W\xcf?'
p2308
tp2309
Rp2310
ag3
(g7
S'\xceR\x89\xee\xa2x\xc5?'
p2311
tp2312
Rp2313
as(I14
I8
I4
tp2314
(lp2315
F0.7247810363769531
ag3
(g7
S')\xed\xe1\x9e\x9a\x81\xe7?'
p2316
tp2317
Rp2318
ag3
(g7
S'\xa5\xeb\xcd\xfa\x95c\xe4?'
p2319
tp2320
Rp2321
as(I20
I10
I4
tp2322
(lp2323
F0.3239259719848633
ag3
(g7
S'\xd3\xc4\x82\xbdG\x10\xdd?'
p2324
tp2325
Rp2326
ag3
(g7
S'Y\xfd\xdc\xe0w\x8b\xd6?'
p2327
tp2328
Rp2329
as(I18
I14
I1
tp2330
(lp2331
F0.24307894706726074
ag3
(g7
S'9\xe1\x82\x99\xe9\xe4\xd5?'
p2332
tp2333
Rp2334
ag3
(g7
S'\xdb\xe5#\xff\x96\x19\xd0?'
p2335
tp2336
Rp2337
as(I20
I16
I0
tp2338
(lp2339
F0.2403559684753418
ag3
(g7
S'KU\xe2\x1a\xec7\xcd?'
p2340
tp2341
Rp2342
ag3
(g7
S'\x9c}G\xe1p\xea\xc3?'
p2343
tp2344
Rp2345
as(I20
I30
I4
tp2346
(lp2347
F0.9471290111541748
ag3
(g7
S' \x91\n\x1b9\x1d\xe5?'
p2348
tp2349
Rp2350
ag3
(g7
S'\x86\xea\xb8\x9a\xe0\xcb\xe1?'
p2351
tp2352
Rp2353
as(I18
I30
I2
tp2354
(lp2355
F0.60530686378479
ag3
(g7
S'\xb6O\xf6G\xc8 \xe2?'
p2356
tp2357
Rp2358
ag3
(g7
S'\t\x95\x95d\x80@\xdd?'
p2359
tp2360
Rp2361
as(I16
I2
I0
tp2362
(lp2363
F0.03689289093017578
ag3
(g7
S'_SR%1\xb4\xb7?'
p2364
tp2365
Rp2366
ag3
(g7
S'}\xd8\x15\xcf\x809\xac?'
p2367
tp2368
Rp2369
as(I14
I16
I1
tp2370
(lp2371
F0.3901100158691406
ag3
(g7
S'\x97\x07\xe1A~u\xe1?'
p2372
tp2373
Rp2374
ag3
(g7
S'\x0b\xaa\xf5\x19\x18\xf3\xdb?'
p2375
tp2376
Rp2377
as(I22
I18
I2
tp2378
(lp2379
F0.34590697288513184
ag3
(g7
S'\xfdY\xee\xdej\x88\xd4?'
p2380
tp2381
Rp2382
ag3
(g7
S'\x90\xba\x84Asg\xce?'
p2383
tp2384
Rp2385
as(I22
I20
I2
tp2386
(lp2387
F0.4023780822753906
ag3
(g7
S'\xaa\x06\r\xfd<1\xd6?'
p2388
tp2389
Rp2390
ag3
(g7
S'GHb\xeb!\x81\xd0?'
p2391
tp2392
Rp2393
as(I12
I32
I0
tp2394
(lp2395
F0.7863550186157227
ag3
(g7
S'\xdeZQ\xe0\xa8o\xe6?'
p2396
tp2397
Rp2398
ag3
(g7
S'J\xac\x9c\xe7\xe9\x01\xe3?'
p2399
tp2400
Rp2401
as(I18
I26
I1
tp2402
(lp2403
F0.44793701171875
ag3
(g7
S's\xbc \x01\x92m\xdc?'
p2404
tp2405
Rp2406
ag3
(g7
S'\xba\xb0\xfc1#\xe3\xd5?'
p2407
tp2408
Rp2409
as(I20
I12
I0
tp2410
(lp2411
F0.17449021339416504
ag3
(g7
S'\xe0\x13\xceG{;\xca?'
p2412
tp2413
Rp2414
ag3
(g7
S'\x8916N\xdc\xbe\xc1?'
p2415
tp2416
Rp2417
as(I16
I16
I4
tp2418
(lp2419
F0.837785005569458
ag3
(g7
S'6\x18\xcf\xfdF\x83\xe8?'
p2420
tp2421
Rp2422
ag3
(g7
S'\xab\xab\xe5_\xf1\x89\xe5?'
p2423
tp2424
Rp2425
as(I16
I22
I0
tp2426
(lp2427
F0.3147408962249756
ag3
(g7
S'\xa5`~\xce@\xda\xd8?'
p2428
tp2429
Rp2430
ag3
(g7
S'#Z\xbe\xb6\xdb~\xd2?'
p2431
tp2432
Rp2433
as(I14
I4
I1
tp2434
(lp2435
F0.10257482528686523
ag3
(g7
S'S\xbf\xfbc\xc3\xd3\xd2?'
p2436
tp2437
Rp2438
ag3
(g7
S'\xd3\xdc\x16\x85L\x81\xca?'
p2439
tp2440
Rp2441
as(I22
I6
I2
tp2442
(lp2443
F0.1298520565032959
ag3
(g7
S'\xe5\x02\xd5}\xff$\xca?'
p2444
tp2445
Rp2446
ag3
(g7
S'\x84\xd8\x8c\xf7\xb5\xd7\xc1?'
p2447
tp2448
Rp2449
as(I16
I12
I4
tp2450
(lp2451
F1.0247318744659424
ag3
(g7
S'\x8c\xb2-\x93p\xcd\xe6?'
p2452
tp2453
Rp2454
ag3
(g7
S'+\xee\x1a]{\xa0\xe3?'
p2455
tp2456
Rp2457
as(I22
I24
I2
tp2458
(lp2459
F0.4576230049133301
ag3
(g7
S'x\x197(\x062\xd7?'
p2460
tp2461
Rp2462
ag3
(g7
S'\x12\x14\x0fc\xef\x8e\xd1?'
p2463
tp2464
Rp2465
as(I20
I1
I2
tp2466
(lp2467
F0.028069019317626953
ag3
(g7
S'Tc\x18\x16\xfe\xec\xb7?'
p2468
tp2469
Rp2470
ag3
(g7
S'RV\x15\xf4\x9a\x15\xad?'
p2471
tp2472
Rp2473
as(I20
I18
I1
tp2474
(lp2475
F0.29749107360839844
ag3
(g7
S'\x90\xee\x19\xa1\xca&\xd4?'
p2476
tp2477
Rp2478
ag3
(g7
S'E(\xf4\x82\x81U\xcd?'
p2479
tp2480
Rp2481
as(I14
I1
I1
tp2482
(lp2483
F0.031868934631347656
ag3
(g7
S'\xf9k\xa3Y`\xde\xbe?'
p2484
tp2485
Rp2486
ag3
(g7
S'O\xa49o\x83\xe5\xb2?'
p2487
tp2488
Rp2489
as(I16
I4
I1
tp2490
(lp2491
F0.07963800430297852
ag3
(g7
S'\x86 \xc6[+\n\xcc?'
p2492
tp2493
Rp2494
ag3
(g7
S'\xd2P\x8e\x9a\x16\xd9\xc2?'
p2495
tp2496
Rp2497
as(I14
I22
I2
tp2498
(lp2499
F0.8540999889373779
ag3
(g7
S'\x82\x8ana\xffH\xe8?'
p2500
tp2501
Rp2502
ag3
(g7
S'\x1bd\x1c\x83\xce:\xe5?'
p2503
tp2504
Rp2505
as(I14
I24
I2
tp2506
(lp2507
F0.8764009475708008
ag3
(g7
S'z\xeaGW\xddn\xe8?'
p2508
tp2509
Rp2510
ag3
(g7
S'\xb09\xe0\xc6\xe8o\xe5?'
p2511
tp2512
Rp2513
as(I20
I6
I4
tp2514
(lp2515
F0.23188185691833496
ag3
(g7
S"f\xbe'\x1f\x82\x8f\xd7?"
p2516
tp2517
Rp2518
ag3
(g7
S'\x90\x06\xaeh\xcf\x97\xd1?'
p2519
tp2520
Rp2521
as(I22
I20
I4
tp2522
(lp2523
F0.7387359142303467
ag3
(g7
S'\xfc\x1c\xc3-\xfe\xce\xde?'
p2524
tp2525
Rp2526
ag3
(g7
S'\xc1\x03>doM\xd8?'
p2527
tp2528
Rp2529
as(I20
I32
I2
tp2530
(lp2531
F0.6034679412841797
ag3
(g7
S'\x0fL\x17x\xc6l\xde?'
p2532
tp2533
Rp2534
ag3
(g7
S'\x97,\xfb\x1d\x7f\xde\xd7?'
p2535
tp2536
Rp2537
as(I22
I10
I2
tp2538
(lp2539
F0.19926714897155762
ag3
(g7
S'\xc7\xe2\x8as\x8a\x80\xd0?'
p2540
tp2541
Rp2542
ag3
(g7
S'\xed$2p\xc8m\xc7?'
p2543
tp2544
Rp2545
as(I12
I2
I4
tp2546
(lp2547
F0.4018869400024414
ag3
(g7
S'\x1d\x9a\xa6Q\x80X\xe1?'
p2548
tp2549
Rp2550
ag3
(g7
S'U\xde\xad\x1b\xea\xbf\xdb?'
p2551
tp2552
Rp2553
as(I22
I12
I2
tp2554
(lp2555
F0.23443198204040527
ag3
(g7
S"'\xeb\xec/@#\xd1?"
p2556
tp2557
Rp2558
ag3
(g7
S'\xb3\x01\xd8\xb1\x11\x92\xc8?'
p2559
tp2560
Rp2561
as(I20
I14
I1
tp2562
(lp2563
F0.23309803009033203
ag3
(g7
S'o\xcc]\x1a\x94D\xd2?'
p2564
tp2565
Rp2566
ag3
(g7
S'hN\x1d\xda\x05\x15\xca?'
p2567
tp2568
Rp2569
as(I16
I8
I1
tp2570
(lp2571
F0.1631779670715332
ag3
(g7
S'U#6`\x8bT\xd5?'
p2572
tp2573
Rp2574
ag3
(g7
S'\xec=\x82\xe8F\x1e\xcf?'
p2575
tp2576
Rp2577
as(I14
I10
I2
tp2578
(lp2579
F0.3649098873138428
ag3
(g7
S'\xa2\x81\xae\xcc\x8c\x86\xe2?'
p2580
tp2581
Rp2582
ag3
(g7
S'\x98cA\x9d\xaa;\xde?'
p2583
tp2584
Rp2585
as(I14
I12
I2
tp2586
(lp2587
F0.41412901878356934
ag3
(g7
S'\x82$9\x11\xab(\xe3?'
p2588
tp2589
Rp2590
ag3
(g7
S'\xe6\xdbB@\x0b=\xdf?'
p2591
tp2592
Rp2593
as(I20
I28
I2
tp2594
(lp2595
F0.5222020149230957
ag3
(g7
S'\xd1\xb2V\x1a\x1d\x1c\xdd?'
p2596
tp2597
Rp2598
ag3
(g7
S'\r\xecILL\xc9\xd6?'
p2599
tp2600
Rp2601
as(I20
I26
I2
tp2602
(lp2603
F0.5095369815826416
ag3
(g7
S'\x01\xc3Q\\\xfa%\xdc?'
p2604
tp2605
Rp2606
ag3
(g7
S'\xb8\xd3!\x9f\xc9\xed\xd5?'
p2607
tp2608
Rp2609
as(I12
I4
I0
tp2610
(lp2611
F0.09335803985595703
ag3
(g7
S'\xdc#\x0ba}\x12\xd0?'
p2612
tp2613
Rp2614
ag3
(g7
S'\xcb\xa1i\x1a\x05\x88\xc5?'
p2615
tp2616
Rp2617
as(I16
I28
I1
tp2618
(lp2619
F0.5236508846282959
ag3
(g7
S'8\xfcJs[\x14\xe2?'
p2620
tp2621
Rp2622
ag3
(g7
S'\xcc\x8e\xfe\xd3\xc73\xdd?'
p2623
tp2624
Rp2625
as(I20
I8
I2
tp2626
(lp2627
F0.16364192962646484
ag3
(g7
S'\xf1Ca5V9\xd2?'
p2628
tp2629
Rp2630
ag3
(g7
S'a\x82;\x11(6\xca?'
p2631
tp2632
Rp2633
as(I14
I32
I1
tp2634
(lp2635
F0.7955260276794434
ag3
(g7
S'WUS^\xef\x94\xe6?'
p2636
tp2637
Rp2638
ag3
(g7
S'\xdd\xd9\xd6\xa8{@\xe3?'
p2639
tp2640
Rp2641
as(I18
I1
I2
tp2642
(lp2643
F0.031677961349487305
ag3
(g7
S'\xe1\xb7\xea\xf9\xb5T\xbf?'
p2644
tp2645
Rp2646
ag3
(g7
S'$\xed\xe7\x83\xcc\xc2\xb3?'
p2647
tp2648
Rp2649
as(I20
I22
I2
tp2650
(lp2651
F0.4259641170501709
ag3
(g7
S'\xb6\xfbo\x8d7\x15\xdb?'
p2652
tp2653
Rp2654
ag3
(g7
S'\xea\xf5H\x84\xd1\xeb\xd4?'
p2655
tp2656
Rp2657
as(I12
I26
I4
tp2658
(lp2659
F5.0601441860198975
ag3
(g7
S'W\x97*\x83\xbc\x8b\xef?'
p2660
tp2661
Rp2662
ag3
(g7
S'\xc8a\x8dI\xc40\xef?'
p2663
tp2664
Rp2665
as(I12
I16
I0
tp2666
(lp2667
F0.4082942008972168
ag3
(g7
S'\xd7\x1f\xa4uav\xe1?'
p2668
tp2669
Rp2670
ag3
(g7
S'\x1b\x92\xcc\xb0\xe4\x9d\xdb?'
p2671
tp2672
Rp2673
as(I12
I14
I4
tp2674
(lp2675
F2.4221341609954834
ag3
(g7
S'\ro<\xe5lw\xee?'
p2676
tp2677
Rp2678
ag3
(g7
S'_\xe8\xf3S\x15w\xed?'
p2679
tp2680
Rp2681
as(I18
I8
I4
tp2682
(lp2683
F0.30878591537475586
ag3
(g7
S'\xc3\xcd\xad\xb0\x8b\xee\xdf?'
p2684
tp2685
Rp2686
ag3
(g7
S'T\xf6A\xe3\xee0\xd9?'
p2687
tp2688
Rp2689
as(I22
I22
I4
tp2690
(lp2691
F0.6631019115447998
ag3
(g7
S'W09\x82\xee+\xe0?'
p2692
tp2693
Rp2694
ag3
(g7
S'\xbaWM\xf6\xca\xba\xd9?'
p2695
tp2696
Rp2697
as(I16
I32
I1
tp2698
(lp2699
F0.5793449878692627
ag3
(g7
S'Z\x94s~\xb6\xac\xe2?'
p2700
tp2701
Rp2702
ag3
(g7
S'\x90Yxr\xe6c\xde?'
p2703
tp2704
Rp2705
as(I18
I2
I0
tp2706
(lp2707
F0.03776717185974121
ag3
(g7
S'\xff\x97\xd5@Q\x81\xb4?'
p2708
tp2709
Rp2710
ag3
(g7
S'3g\xaf)\xa9\x92\xa8?'
p2711
tp2712
Rp2713
as(I14
I26
I4
tp2714
(lp2715
F3.882786989212036
ag3
(g7
S'\x94\xde\xdc\x87\xc8O\xee?'
p2716
tp2717
Rp2718
ag3
(g7
S'-q\x8a\x03\x03.\xed?'
p2719
tp2720
Rp2721
as(I12
I6
I1
tp2722
(lp2723
F0.22326302528381348
ag3
(g7
S'7\xe8\xa6n=\xa1\xdd?'
p2724
tp2725
Rp2726
ag3
(g7
S'T\xd9\x84\x9a"\xa3\xd6?'
p2727
tp2728
Rp2729
as(I22
I18
I4
tp2730
(lp2731
F0.6704559326171875
ag3
(g7
S'\x90Yxr\xe6c\xde?'
p2732
tp2733
Rp2734
ag3
(g7
S'\x0eS\xb8Z\x81\x08\xd8?'
p2735
tp2736
Rp2737
as(I14
I28
I0
tp2738
(lp2739
F0.5838022232055664
ag3
(g7
S"'\xb6\x9b\x1fo$\xe1?"
p2740
tp2741
Rp2742
ag3
(g7
S'\xb3\xb4\xf2\xd9;"\xdb?'
p2743
tp2744
Rp2745
as(I20
I2
I2
tp2746
(lp2747
F0.043675899505615234
ag3
(g7
S'\x9b"\xa36\xbec\xc1?'
p2748
tp2749
Rp2750
ag3
(g7
S'\xb3\x19ly\x16\x03\xb6?'
p2751
tp2752
Rp2753
as(I12
I28
I0
tp2754
(lp2755
F0.7495498657226562
ag3
(g7
S'\xcf\x87\xda\xfesw\xe5?'
p2756
tp2757
Rp2758
ag3
(g7
S'\x9d\xf9\x98\x97\xd6\xfc\xe1?'
p2759
tp2760
Rp2761
as(I18
I14
I0
tp2762
(lp2763
F0.20705914497375488
ag3
(g7
S'OR+\x16\xe6X\xd0?'
p2764
tp2765
Rp2766
ag3
(g7
S'\x8c\xe7~\xa3A\xcc\xc6?'
p2767
tp2768
Rp2769
as(I22
I20
I0
tp2770
(lp2771
F0.29522013664245605
ag3
(g7
S'\xa0\x1b\xfcn\xd1\x86\xcb?'
p2772
tp2773
Rp2774
ag3
(g7
S'\xcda\x87d\x92\xef\xc2?'
p2775
tp2776
Rp2777
as(I12
I18
I1
tp2778
(lp2779
F0.7975270748138428
ag3
(g7
S'\xca\x8c\tem\xd5\xe6?'
p2780
tp2781
Rp2782
ag3
(g7
S'\xaen\xb4\xc9R\x8f\xe3?'
p2783
tp2784
Rp2785
as(I22
I28
I4
tp2786
(lp2787
F0.8454070091247559
ag3
(g7
S'\xd8]\x8b\xd7Go\xe1?'
p2788
tp2789
Rp2790
ag3
(g7
S'\x03\n\xcf\x0f\xf6\x18\xdc?'
p2791
tp2792
Rp2793
as(I14
I16
I0
tp2794
(lp2795
F0.30312085151672363
ag3
(g7
S'J\x991\xa1\xac\xad\xda?'
p2796
tp2797
Rp2798
ag3
(g7
S'\x15\xe2\xeb\x7fY\r\xd4?'
p2799
tp2800
Rp2801
as(I22
I18
I1
tp2802
(lp2803
F0.29943108558654785
ag3
(g7
S'\xa8\x8e\xab\t\xbe\x1c\xd1?'
p2804
tp2805
Rp2806
ag3
(g7
S'\xb7Q\xeb\xb6"\x7f\xc8?'
p2807
tp2808
Rp2809
as(I18
I32
I4
tp2810
(lp2811
F1.5147299766540527
ag3
(g7
S'\x98\x93i,\xb4\x1d\xe9?'
p2812
tp2813
Rp2814
ag3
(g7
S'\xe5[\x84\xb9WM\xe6?'
p2815
tp2816
Rp2817
as(I22
I14
I4
tp2818
(lp2819
F0.5066380500793457
ag3
(g7
S'\xac\xdfz\xbfHI\xdb?'
p2820
tp2821
Rp2822
ag3
(g7
S'\x19&5!\xe8A\xd5?'
p2823
tp2824
Rp2825
as(I18
I26
I0
tp2826
(lp2827
F0.3638448715209961
ag3
(g7
S'\xb3\x19ly\x16\x03\xd6?'
p2828
tp2829
Rp2830
ag3
(g7
S'\x94b\x8b\xd1b=\xd0?'
p2831
tp2832
Rp2833
as(I18
I20
I4
tp2834
(lp2835
F0.9538760185241699
ag3
(g7
S'v\x13\xd5\xe8]\xf6\xe5?'
p2836
tp2837
Rp2838
ag3
(g7
S'\x98\x04\xad/\x11\xb7\xe2?'
p2839
tp2840
Rp2841
as(I14
I2
I4
tp2842
(lp2843
F0.1564929485321045
ag3
(g7
S'|\xbbX\x86\xb4\xab\xd9?'
p2844
tp2845
Rp2846
ag3
(g7
S'\xc3\xdb\xefu\x01&\xd3?'
p2847
tp2848
Rp2849
as(I12
I30
I1
tp2850
(lp2851
F1.2884349822998047
ag3
(g7
S'R\r\x9d\xec\x12\x83\xea?'
p2852
tp2853
Rp2854
ag3
(g7
S"\x0f'\xfd\x9b\xc5\x03\xe8?"
p2855
tp2856
Rp2857
as(I14
I4
I0
tp2858
(lp2859
F0.08066105842590332
ag3
(g7
S'\xa4\xd5\xb1\x94\x84q\xcb?'
p2860
tp2861
Rp2862
ag3
(g7
S'ij\x1erXc\xc2?'
p2863
tp2864
Rp2865
as(I22
I6
I1
tp2866
(lp2867
F0.11006593704223633
ag3
(g7
S'\xef\xed\xe5\x0bk\xcf\xc4?'
p2868
tp2869
Rp2870
ag3
(g7
S'\xb9\xac\x8fa\xd5\x05\xbb?'
p2871
tp2872
Rp2873
as(I14
I14
I4
tp2874
(lp2875
F1.2718708515167236
ag3
(g7
S'X.\xc1 \xfb\xac\xeb?'
p2876
tp2877
Rp2878
ag3
(g7
S'\x04\xc1V\x08n\x86\xe9?'
p2879
tp2880
Rp2881
as(I20
I20
I4
tp2882
(lp2883
F0.6462521553039551
ag3
(g7
S'b\xd3\x8d\xb9K\x83\xe2?'
p2884
tp2885
Rp2886
ag3
(g7
S'\xdaX\xdfc\xe71\xde?'
p2887
tp2888
Rp2889
as(I18
I12
I1
tp2890
(lp2891
F0.20786404609680176
ag3
(g7
S'\x84*\x9bPSd\xd4?'
p2892
tp2893
Rp2894
ag3
(g7
S'\xbf\xf6:B\x0cv\xcd?'
p2895
tp2896
Rp2897
as(I20
I18
I0
tp2898
(lp2899
F0.25597095489501953
ag3
(g7
S'\xf4|\x9c#\xdc\xf4\xce?'
p2900
tp2901
Rp2902
ag3
(g7
S'\xcac\x82\xb8\x1e\x8f\xc5?'
p2903
tp2904
Rp2905
as(I16
I14
I4
tp2906
(lp2907
F0.7701101303100586
ag3
(g7
S'^\x7f\r\xe4\xec\xb8\xe7?'
p2908
tp2909
Rp2910
ag3
(g7
S'\x18X\xd5\x11\xe5\xa2\xe4?'
p2911
tp2912
Rp2913
as(I20
I24
I4
tp2914
(lp2915
F0.7469489574432373
ag3
(g7
S'-5\x98\x10w\x93\xe3?'
p2916
tp2917
Rp2918
ag3
(g7
S'ZBe%\x19 \xe0?'
p2919
tp2920
Rp2921
as(I12
I12
I2
tp2922
(lp2923
F0.763232946395874
ag3
(g7
S'\xc9BX\x9f\x04$\xe8?'
p2924
tp2925
Rp2926
ag3
(g7
S'\xdf\xd0\xbdd\xcd%\xe5?'
p2927
tp2928
Rp2929
as(I16
I4
I0
tp2930
(lp2931
F0.0735630989074707
ag3
(g7
S'\xa2(\xff\x904^\xc6?'
p2932
tp2933
Rp2934
ag3
(g7
S'T3\xf0\x86\xf4\n\xbd?'
p2935
tp2936
Rp2937
as(I14
I22
I1
tp2938
(lp2939
F0.5620448589324951
ag3
(g7
S',\xf7\xb0\xae\x90\x9a\xe3?'
p2940
tp2941
Rp2942
ag3
(g7
S'\xdc\x84\x170\n\x16\xe0?'
p2943
tp2944
Rp2945
as(I12
I10
I2
tp2946
(lp2947
F0.6072039604187012
ag3
(g7
S'\x0c\x82\xa7+\xaa\xcb\xe6?'
p2948
tp2949
Rp2950
ag3
(g7
S'\x8ex0\x0f?\x91\xe3?'
p2951
tp2952
Rp2953
as(I20
I32
I1
tp2954
(lp2955
F0.5132348537445068
ag3
(g7
S'\xb5\xa9a4\x9a\x88\xd8?'
p2956
tp2957
Rp2958
ag3
(g7
S'\x1e\x01\x15`\xb5\x97\xd2?'
p2959
tp2960
Rp2961
as(I22
I10
I1
tp2962
(lp2963
F0.1775970458984375
ag3
(g7
S'\xe0t\xda\x16\x08?\xca?'
p2964
tp2965
Rp2966
ag3
(g7
S'\x7f\xe9\x85\xc11\xee\xc1?'
p2967
tp2968
Rp2969
as(I16
I1
I2
tp2970
(lp2971
F0.030936002731323242
ag3
(g7
S'\xa8YZ\xf9\xec\x1d\xc1?'
p2972
tp2973
Rp2974
ag3
(g7
S'\xc4\x01C\x10\xe3\xad\xb5?'
p2975
tp2976
Rp2977
as(I18
I24
I1
tp2978
(lp2979
F0.4004490375518799
ag3
(g7
S';\xefAl\xc6\xfb\xda?'
p2980
tp2981
Rp2982
ag3
(g7
S'u\x16\t\xfb\xca\xb4\xd4?'
p2983
tp2984
Rp2985
as(I20
I14
I0
tp2986
(lp2987
F0.19975805282592773
ag3
(g7
S'\x89\xd1\xe5/\xc9\xfa\xcb?'
p2988
tp2989
Rp2990
ag3
(g7
S'\xc7\xffG\xbcV\x0e\xc3?'
p2991
tp2992
Rp2993
as(I12
I24
I2
tp2994
(lp2995
F1.7783260345458984
ag3
(g7
S'q\x14\x97~\tw\xec?'
p2996
tp2997
Rp2998
ag3
(g7
S'\xf0\xb7\xd8J \x91\xea?'
p2999
tp3000
Rp3001
as(I16
I8
I0
tp3002
(lp3003
F0.12619400024414062
ag3
(g7
S'\xe6\xdbB@\x0b=\xcf?'
p3004
tp3005
Rp3006
ag3
(g7
S'Rr\x16\x8c\xedc\xc5?'
p3007
tp3008
Rp3009
as(I14
I10
I1
tp3010
(lp3011
F0.33951902389526367
ag3
(g7
S'%\xf79\x86[\xfc\xdd?'
p3012
tp3013
Rp3014
ag3
(g7
S'\xbe\x939\x04%\x14\xd7?'
p3015
tp3016
Rp3017
as(I12
I22
I2
tp3018
(lp3019
F1.5692369937896729
ag3
(g7
S'\x85\x81\xd2*\xb8\r\xec?'
p3020
tp3021
Rp3022
ag3
(g7
S'\xcb\xd82\x8c\xc9\x05\xea?'
p3023
tp3024
Rp3025
as(I22
I18
I0
tp3026
(lp3027
F0.26855015754699707
ag3
(g7
S"\xf0'`\x9d\x03\xeb\xc9?"
p3028
tp3029
Rp3030
ag3
(g7
S'\x178g\xa9Dw\xc1?'
p3031
tp3032
Rp3033
as(I18
I10
I2
tp3034
(lp3035
F0.23050212860107422
ag3
(g7
S'b\xcf \xe9\xfd\xa5\xd7?'
p3036
tp3037
Rp3038
ag3
(g7
S'\x8bx\xb3\x01\xd8\xb1\xd1?'
p3039
tp3040
Rp3041
as(I22
I26
I4
tp3042
(lp3043
F0.782541036605835
ag3
(g7
S'\xa9-\x9f:1\x19\xe1?'
p3044
tp3045
Rp3046
ag3
(g7
S'\x9e>!\xdcw\x91\xdb?'
p3047
tp3048
Rp3049
as(I20
I28
I1
tp3050
(lp3051
F0.4542078971862793
ag3
(g7
S'W\xb3+\x1b\x0f\xda\xd7?'
p3052
tp3053
Rp3054
ag3
(g7
S'\xf7pO\xcd\xc0\x1b\xd2?'
p3055
tp3056
Rp3057
as(I18
I4
I2
tp3058
(lp3059
F0.09026694297790527
ag3
(g7
S'\xd2\x07\x16\x93\x8eF\xd0?'
p3060
tp3061
Rp3062
ag3
(g7
S'\x1ca\xe8pa|\xc6?'
p3063
tp3064
Rp3065
as(I16
I6
I1
tp3066
(lp3067
F0.11911702156066895
ag3
(g7
S'Z\x94s~\xb6\xac\xd2?'
p3068
tp3069
Rp3070
ag3
(g7
S'\xd7a{\x9a.m\xca?'
p3071
tp3072
Rp3073
as(I22
I1
I0
tp3074
(lp3075
F0.02527785301208496
ag3
(g7
S'\xccA\x19\xfc\xf1\xc3\x9f?'
p3076
tp3077
Rp3078
ag3
(g7
S'\x95\xc0c\x8e\x82\x82\x91?'
p3079
tp3080
Rp3081
as(I16
I28
I0
tp3082
(lp3083
F0.39949703216552734
ag3
(g7
S'\xabu\xd8\x9e\xa6K\xdb?'
p3084
tp3085
Rp3086
ag3
(g7
S'\xea\xc0\xf7s\x00\xed\xd4?'
p3087
tp3088
Rp3089
as(I16
I18
I4
tp3090
(lp3091
F1.352358102798462
ag3
(g7
S'b\xf8\xa7\x95L\xec\xe8?'
p3092
tp3093
Rp3094
ag3
(g7
S'S\x0b%\x8b\x1f\x04\xe6?'
p3095
tp3096
Rp3097
as(I22
I28
I0
tp3098
(lp3099
F0.3985168933868408
ag3
(g7
S'\xda\xe2r\xdf\xc2{\xcf?'
p3100
tp3101
Rp3102
ag3
(g7
S'(\xc4Z\xf2K;\xc6?'
p3103
tp3104
Rp3105
as(I18
I22
I2
tp3106
(lp3107
F0.5209450721740723
ag3
(g7
S'\x10xOD\xe9P\xe0?'
p3108
tp3109
Rp3110
ag3
(g7
S'\xf5K\xb8\xe3X\xd3\xd9?'
p3111
tp3112
Rp3113
as(I22
I4
I4
tp3114
(lp3115
F0.1443800926208496
ag3
(g7
S'3\xe4\xbc\x90\x88\xe4\xd0?'
p3116
tp3117
Rp3118
ag3
(g7
S'\xc9BX\x9f\x04$\xc8?'
p3119
tp3120
Rp3121
as(I20
I8
I1
tp3122
(lp3123
F0.14557814598083496
ag3
(g7
S'l%\x90H\x85\x8d\xcc?'
p3124
tp3125
Rp3126
ag3
(g7
S'\x1d\xb7c\x9aL\xe6\xc3?'
p3127
tp3128
Rp3129
as(I14
I32
I0
tp3130
(lp3131
F0.547187089920044
ag3
(g7
S"\xb4\x11\x0f\xe6\xe1'\xe2?"
p3132
tp3133
Rp3134
ag3
(g7
S'\x8f\xf2\td\xb1$\xdd?'
p3135
tp3136
Rp3137
as(I18
I16
I2
tp3138
(lp3139
F0.3361361026763916
ag3
(g7
S'\x80()\xd4\x91&\xdc?'
p3140
tp3141
Rp3142
ag3
(g7
S'\xff\xf5\xad\xfdp\xc6\xd5?'
p3143
tp3144
Rp3145
as(I16
I10
I1
tp3146
(lp3147
F0.18427395820617676
ag3
(g7
S'\x81,\x96\xa4\xdf\x03\xd7?'
p3148
tp3149
Rp3150
ag3
(g7
S'\xec\xf6\x81B\xb2\n\xd1?'
p3151
tp3152
Rp3153
as(I16
I32
I0
tp3154
(lp3155
F0.43634796142578125
ag3
(g7
S'[\xd3\x16\x91\x16\xe5\xdc?'
p3156
tp3157
Rp3158
ag3
(g7
S'\xb1\x07@\xd6\xeb\x0e\xd6?'
p3159
tp3160
Rp3161
as(I12
I2
I1
tp3162
(lp3163
F0.08597993850708008
ag3
(g7
S"\xc9\x90\xf9'T\xd3\xcf?"
p3164
tp3165
Rp3166
ag3
(g7
S'\xa8\xf4\xe0Y\x12=\xc6?'
p3167
tp3168
Rp3169
as(I12
I6
I0
tp3170
(lp3171
F0.1333601474761963
ag3
(g7
S'S\xa7g\x9c\xbeb\xd5?'
p3172
tp3173
Rp3174
ag3
(g7
S'\x19\xd2\xaefW6\xce?'
p3175
tp3176
Rp3177
as(I20
I4
I1
tp3178
(lp3179
F0.07447290420532227
ag3
(g7
S'*\x84x<\xd9\xa2\xc3?'
p3180
tp3181
Rp3182
ag3
(g7
S'\nX\xe7\xc0zf\xb9?'
p3183
tp3184
Rp3185
as(I18
I28
I2
tp3186
(lp3187
F0.5756518840789795
ag3
(g7
S'\x12\x14\x0fc\xef\x8e\xe1?'
p3188
tp3189
Rp3190
ag3
(g7
S'x\xe9\x0e\x99\xfcO\xdc?'
p3191
tp3192
Rp3193
as(I22
I32
I4
tp3194
(lp3195
F1.0319571495056152
ag3
(g7
S'39\xff\xfb\x92/\xe2?'
p3196
tp3197
Rp3198
ag3
(g7
S'\xb2\x93\xc8\xc0!\xb7\xdd?'
p3199
tp3200
Rp3201
as(I16
I30
I1
tp3202
(lp3203
F0.5502221584320068
ag3
(g7
S'u\x98?\xe3q#\xe2?'
p3204
tp3205
Rp3206
ag3
(g7
S'\xc5\xc2\x1c\x0b\xeaT\xdd?'
p3207
tp3208
Rp3209
as(I22
I2
I4
tp3210
(lp3211
F0.0643460750579834
ag3
(g7
S'_\xf2EV\xa4\xb0\xc7?'
p3212
tp3213
Rp3214
ag3
(g7
S'\xd7\x9b\xf5+\xc7\x88\xbf?'
p3215
tp3216
Rp3217
as(I12
I20
I4
tp3218
(lp3219
F3.984349012374878
ag3
(g7
S'*\xae\xbb\x99\xa1(\xef?'
p3220
tp3221
Rp3222
ag3
(g7
S'h\xba7\\\x9b\x91\xee?'
p3223
tp3224
Rp3225
as(I16
I12
I2
tp3226
(lp3227
F0.30299901962280273
ag3
(g7
S'\xe8N{\xb2\xc24\xdf?'
p3228
tp3229
Rp3230
ag3
(g7
S'\x85\xa50V?7\xd8?'
p3231
tp3232
Rp3233
as(I12
I18
I0
tp3234
(lp3235
F0.47791194915771484
ag3
(g7
S'\xf6\x9c\n\x8c| \xe2?'
p3236
tp3237
Rp3238
ag3
(g7
S'\xd7\xe8\xda\x03\x9d\xf8\xdc?'
p3239
tp3240
Rp3241
as(I16
I2
I2
tp3242
(lp3243
F0.06515812873840332
ag3
(g7
S'\xed\x0c\x9e\xa8\xc3\xfc\xc9?'
p3244
tp3245
Rp3246
ag3
(g7
S'+pQE"\x0f\xc1?'
p3247
tp3248
Rp3249
as(I20
I1
I4
tp3250
(lp3251
F0.03734898567199707
ag3
(g7
S'\x04\x90r\xc8\xead\xc4?'
p3252
tp3253
Rp3254
ag3
(g7
S'\xc3\x933\x1f\xf3\xd2\xba?'
p3255
tp3256
Rp3257
as(I12
I8
I4
tp3258
(lp3259
F1.232767105102539
ag3
(g7
S'\xaa\x02\xa0,\xefS\xeb?'
p3260
tp3261
Rp3262
ag3
(g7
S']\x9f\xfe>&\x05\xe9?'
p3263
tp3264
Rp3265
as(I18
I6
I4
tp3266
(lp3267
F0.23074603080749512
ag3
(g7
S'\xc0\x95.s\x7fr\xdd?'
p3268
tp3269
Rp3270
ag3
(g7
S'\x8e\x8f\x08&\xca\xc2\xd6?'
p3271
tp3272
Rp3273
as.